ARM GAS  F:\UTILIS~1\demasson\AppData\Local\Temp\cc7cZjN3.s 			page 1


   1              		.cpu cortex-m0
   2              		.fpu softvfp
   3              		.eabi_attribute 20, 1
   4              		.eabi_attribute 21, 1
   5              		.eabi_attribute 23, 3
   6              		.eabi_attribute 24, 1
   7              		.eabi_attribute 25, 1
   8              		.eabi_attribute 26, 1
   9              		.eabi_attribute 30, 6
  10              		.eabi_attribute 34, 0
  11              		.eabi_attribute 18, 4
  12              		.code	16
  13              		.file	"Counter_1_PM.c"
  14              		.text
  15              	.Ltext0:
  16              		.cfi_sections	.debug_frame
  17              		.bss
  18              		.align	2
  19              	Counter_1_backup:
  20 0000 00000000 		.space	4
  21              		.section	.text.Counter_1_SaveConfig,"ax",%progbits
  22              		.align	2
  23              		.global	Counter_1_SaveConfig
  24              		.code	16
  25              		.thumb_func
  26              		.type	Counter_1_SaveConfig, %function
  27              	Counter_1_SaveConfig:
  28              	.LFB0:
  29              		.file 1 ".\\Generated_Source\\PSoC4\\Counter_1_PM.c"
   1:.\Generated_Source\PSoC4/Counter_1_PM.c **** /*******************************************************************************
   2:.\Generated_Source\PSoC4/Counter_1_PM.c **** * File Name: Counter_1_PM.c  
   3:.\Generated_Source\PSoC4/Counter_1_PM.c **** * Version 2.40
   4:.\Generated_Source\PSoC4/Counter_1_PM.c **** *
   5:.\Generated_Source\PSoC4/Counter_1_PM.c **** *  Description:
   6:.\Generated_Source\PSoC4/Counter_1_PM.c **** *    This file provides the power management source code to API for the
   7:.\Generated_Source\PSoC4/Counter_1_PM.c **** *    Counter.  
   8:.\Generated_Source\PSoC4/Counter_1_PM.c **** *
   9:.\Generated_Source\PSoC4/Counter_1_PM.c **** *   Note:
  10:.\Generated_Source\PSoC4/Counter_1_PM.c **** *     None
  11:.\Generated_Source\PSoC4/Counter_1_PM.c **** *
  12:.\Generated_Source\PSoC4/Counter_1_PM.c **** *******************************************************************************
  13:.\Generated_Source\PSoC4/Counter_1_PM.c **** * Copyright 2008-2012, Cypress Semiconductor Corporation.  All rights reserved.
  14:.\Generated_Source\PSoC4/Counter_1_PM.c **** * You may use this file only in accordance with the license, terms, conditions, 
  15:.\Generated_Source\PSoC4/Counter_1_PM.c **** * disclaimers, and limitations in the end user license agreement accompanying 
  16:.\Generated_Source\PSoC4/Counter_1_PM.c **** * the software package with which this file was provided.
  17:.\Generated_Source\PSoC4/Counter_1_PM.c **** ********************************************************************************/
  18:.\Generated_Source\PSoC4/Counter_1_PM.c **** 
  19:.\Generated_Source\PSoC4/Counter_1_PM.c **** #include "Counter_1.h"
  20:.\Generated_Source\PSoC4/Counter_1_PM.c **** 
  21:.\Generated_Source\PSoC4/Counter_1_PM.c **** static Counter_1_backupStruct Counter_1_backup;
  22:.\Generated_Source\PSoC4/Counter_1_PM.c **** 
  23:.\Generated_Source\PSoC4/Counter_1_PM.c **** 
  24:.\Generated_Source\PSoC4/Counter_1_PM.c **** /*******************************************************************************
  25:.\Generated_Source\PSoC4/Counter_1_PM.c **** * Function Name: Counter_1_SaveConfig
  26:.\Generated_Source\PSoC4/Counter_1_PM.c **** ********************************************************************************
  27:.\Generated_Source\PSoC4/Counter_1_PM.c **** * Summary:
  28:.\Generated_Source\PSoC4/Counter_1_PM.c **** *     Save the current user configuration
ARM GAS  F:\UTILIS~1\demasson\AppData\Local\Temp\cc7cZjN3.s 			page 2


  29:.\Generated_Source\PSoC4/Counter_1_PM.c **** *
  30:.\Generated_Source\PSoC4/Counter_1_PM.c **** * Parameters:  
  31:.\Generated_Source\PSoC4/Counter_1_PM.c **** *  void
  32:.\Generated_Source\PSoC4/Counter_1_PM.c **** *
  33:.\Generated_Source\PSoC4/Counter_1_PM.c **** * Return: 
  34:.\Generated_Source\PSoC4/Counter_1_PM.c **** *  void
  35:.\Generated_Source\PSoC4/Counter_1_PM.c **** *
  36:.\Generated_Source\PSoC4/Counter_1_PM.c **** * Global variables:
  37:.\Generated_Source\PSoC4/Counter_1_PM.c **** *  Counter_1_backup:  Variables of this global structure are modified to 
  38:.\Generated_Source\PSoC4/Counter_1_PM.c **** *  store the values of non retention configuration registers when Sleep() API is 
  39:.\Generated_Source\PSoC4/Counter_1_PM.c **** *  called.
  40:.\Generated_Source\PSoC4/Counter_1_PM.c **** *
  41:.\Generated_Source\PSoC4/Counter_1_PM.c **** *******************************************************************************/
  42:.\Generated_Source\PSoC4/Counter_1_PM.c **** void Counter_1_SaveConfig(void) 
  43:.\Generated_Source\PSoC4/Counter_1_PM.c **** {
  30              		.loc 1 43 0
  31              		.cfi_startproc
  32 0000 80B5     		push	{r7, lr}
  33              	.LCFI0:
  34              		.cfi_def_cfa_offset 8
  35              		.cfi_offset 7, -8
  36              		.cfi_offset 14, -4
  37 0002 00AF     		add	r7, sp, #0
  38              	.LCFI1:
  39              		.cfi_def_cfa_register 7
  44:.\Generated_Source\PSoC4/Counter_1_PM.c ****     #if (!Counter_1_UsingFixedFunction)
  45:.\Generated_Source\PSoC4/Counter_1_PM.c **** 
  46:.\Generated_Source\PSoC4/Counter_1_PM.c ****         Counter_1_backup.CounterUdb = Counter_1_ReadCounter();
  40              		.loc 1 46 0
  41 0004 FFF7FEFF 		bl	Counter_1_ReadCounter
  42 0008 031C     		mov	r3, r0
  43 000a 1A1C     		mov	r2, r3
  44 000c 014B     		ldr	r3, .L2
  45 000e 5A80     		strh	r2, [r3, #2]
  47:.\Generated_Source\PSoC4/Counter_1_PM.c **** 
  48:.\Generated_Source\PSoC4/Counter_1_PM.c ****         #if (CY_UDB_V0)
  49:.\Generated_Source\PSoC4/Counter_1_PM.c ****             Counter_1_backup.CounterPeriod = Counter_1_ReadPeriod();
  50:.\Generated_Source\PSoC4/Counter_1_PM.c ****             Counter_1_backup.CompareValue = Counter_1_ReadCompare();
  51:.\Generated_Source\PSoC4/Counter_1_PM.c ****             Counter_1_backup.InterruptMaskValue = Counter_1_STATUS_MASK;
  52:.\Generated_Source\PSoC4/Counter_1_PM.c ****         #endif /* CY_UDB_V0 */
  53:.\Generated_Source\PSoC4/Counter_1_PM.c **** 
  54:.\Generated_Source\PSoC4/Counter_1_PM.c ****         #if(!Counter_1_ControlRegRemoved)
  55:.\Generated_Source\PSoC4/Counter_1_PM.c ****             Counter_1_backup.CounterControlRegister = Counter_1_ReadControlRegister();
  56:.\Generated_Source\PSoC4/Counter_1_PM.c ****         #endif /* (!Counter_1_ControlRegRemoved) */
  57:.\Generated_Source\PSoC4/Counter_1_PM.c **** 
  58:.\Generated_Source\PSoC4/Counter_1_PM.c ****     #endif /* (!Counter_1_UsingFixedFunction) */
  59:.\Generated_Source\PSoC4/Counter_1_PM.c **** }
  46              		.loc 1 59 0
  47 0010 BD46     		mov	sp, r7
  48              		@ sp needed for prologue
  49 0012 80BD     		pop	{r7, pc}
  50              	.L3:
  51              		.align	2
  52              	.L2:
  53 0014 00000000 		.word	Counter_1_backup
  54              		.cfi_endproc
  55              	.LFE0:
ARM GAS  F:\UTILIS~1\demasson\AppData\Local\Temp\cc7cZjN3.s 			page 3


  56              		.size	Counter_1_SaveConfig, .-Counter_1_SaveConfig
  57              		.section	.text.Counter_1_RestoreConfig,"ax",%progbits
  58              		.align	2
  59              		.global	Counter_1_RestoreConfig
  60              		.code	16
  61              		.thumb_func
  62              		.type	Counter_1_RestoreConfig, %function
  63              	Counter_1_RestoreConfig:
  64              	.LFB1:
  60:.\Generated_Source\PSoC4/Counter_1_PM.c **** 
  61:.\Generated_Source\PSoC4/Counter_1_PM.c **** 
  62:.\Generated_Source\PSoC4/Counter_1_PM.c **** /*******************************************************************************
  63:.\Generated_Source\PSoC4/Counter_1_PM.c **** * Function Name: Counter_1_RestoreConfig
  64:.\Generated_Source\PSoC4/Counter_1_PM.c **** ********************************************************************************
  65:.\Generated_Source\PSoC4/Counter_1_PM.c **** *
  66:.\Generated_Source\PSoC4/Counter_1_PM.c **** * Summary:
  67:.\Generated_Source\PSoC4/Counter_1_PM.c **** *  Restores the current user configuration.
  68:.\Generated_Source\PSoC4/Counter_1_PM.c **** *
  69:.\Generated_Source\PSoC4/Counter_1_PM.c **** * Parameters:  
  70:.\Generated_Source\PSoC4/Counter_1_PM.c **** *  void
  71:.\Generated_Source\PSoC4/Counter_1_PM.c **** *
  72:.\Generated_Source\PSoC4/Counter_1_PM.c **** * Return: 
  73:.\Generated_Source\PSoC4/Counter_1_PM.c **** *  void
  74:.\Generated_Source\PSoC4/Counter_1_PM.c **** *
  75:.\Generated_Source\PSoC4/Counter_1_PM.c **** * Global variables:
  76:.\Generated_Source\PSoC4/Counter_1_PM.c **** *  Counter_1_backup:  Variables of this global structure are used to 
  77:.\Generated_Source\PSoC4/Counter_1_PM.c **** *  restore the values of non retention registers on wakeup from sleep mode.
  78:.\Generated_Source\PSoC4/Counter_1_PM.c **** *
  79:.\Generated_Source\PSoC4/Counter_1_PM.c **** *******************************************************************************/
  80:.\Generated_Source\PSoC4/Counter_1_PM.c **** void Counter_1_RestoreConfig(void) 
  81:.\Generated_Source\PSoC4/Counter_1_PM.c **** {      
  65              		.loc 1 81 0
  66              		.cfi_startproc
  67 0000 80B5     		push	{r7, lr}
  68              	.LCFI2:
  69              		.cfi_def_cfa_offset 8
  70              		.cfi_offset 7, -8
  71              		.cfi_offset 14, -4
  72 0002 00AF     		add	r7, sp, #0
  73              	.LCFI3:
  74              		.cfi_def_cfa_register 7
  82:.\Generated_Source\PSoC4/Counter_1_PM.c ****     #if (!Counter_1_UsingFixedFunction)
  83:.\Generated_Source\PSoC4/Counter_1_PM.c **** 
  84:.\Generated_Source\PSoC4/Counter_1_PM.c ****         #if (CY_UDB_V0)
  85:.\Generated_Source\PSoC4/Counter_1_PM.c ****             uint8 Counter_1_interruptState;
  86:.\Generated_Source\PSoC4/Counter_1_PM.c ****         #endif  /* (CY_UDB_V0) */
  87:.\Generated_Source\PSoC4/Counter_1_PM.c **** 
  88:.\Generated_Source\PSoC4/Counter_1_PM.c ****        Counter_1_WriteCounter(Counter_1_backup.CounterUdb);
  75              		.loc 1 88 0
  76 0004 034B     		ldr	r3, .L5
  77 0006 5B88     		ldrh	r3, [r3, #2]
  78 0008 181C     		mov	r0, r3
  79 000a FFF7FEFF 		bl	Counter_1_WriteCounter
  89:.\Generated_Source\PSoC4/Counter_1_PM.c **** 
  90:.\Generated_Source\PSoC4/Counter_1_PM.c ****         #if (CY_UDB_V0)
  91:.\Generated_Source\PSoC4/Counter_1_PM.c ****             Counter_1_WritePeriod(Counter_1_backup.CounterPeriod);
  92:.\Generated_Source\PSoC4/Counter_1_PM.c ****             Counter_1_WriteCompare(Counter_1_backup.CompareValue);
ARM GAS  F:\UTILIS~1\demasson\AppData\Local\Temp\cc7cZjN3.s 			page 4


  93:.\Generated_Source\PSoC4/Counter_1_PM.c **** 
  94:.\Generated_Source\PSoC4/Counter_1_PM.c ****             Counter_1_interruptState = CyEnterCriticalSection();
  95:.\Generated_Source\PSoC4/Counter_1_PM.c ****             Counter_1_STATUS_AUX_CTRL |= Counter_1_STATUS_ACTL_INT_EN_MASK;
  96:.\Generated_Source\PSoC4/Counter_1_PM.c ****             CyExitCriticalSection(Counter_1_interruptState);
  97:.\Generated_Source\PSoC4/Counter_1_PM.c **** 
  98:.\Generated_Source\PSoC4/Counter_1_PM.c ****             Counter_1_STATUS_MASK = Counter_1_backup.InterruptMaskValue;
  99:.\Generated_Source\PSoC4/Counter_1_PM.c ****         #endif  /* (CY_UDB_V0) */
 100:.\Generated_Source\PSoC4/Counter_1_PM.c **** 
 101:.\Generated_Source\PSoC4/Counter_1_PM.c ****         #if(!Counter_1_ControlRegRemoved)
 102:.\Generated_Source\PSoC4/Counter_1_PM.c ****             Counter_1_WriteControlRegister(Counter_1_backup.CounterControlRegister);
 103:.\Generated_Source\PSoC4/Counter_1_PM.c ****         #endif /* (!Counter_1_ControlRegRemoved) */
 104:.\Generated_Source\PSoC4/Counter_1_PM.c **** 
 105:.\Generated_Source\PSoC4/Counter_1_PM.c ****     #endif /* (!Counter_1_UsingFixedFunction) */
 106:.\Generated_Source\PSoC4/Counter_1_PM.c **** }
  80              		.loc 1 106 0
  81 000e BD46     		mov	sp, r7
  82              		@ sp needed for prologue
  83 0010 80BD     		pop	{r7, pc}
  84              	.L6:
  85 0012 C046     		.align	2
  86              	.L5:
  87 0014 00000000 		.word	Counter_1_backup
  88              		.cfi_endproc
  89              	.LFE1:
  90              		.size	Counter_1_RestoreConfig, .-Counter_1_RestoreConfig
  91              		.section	.text.Counter_1_Sleep,"ax",%progbits
  92              		.align	2
  93              		.global	Counter_1_Sleep
  94              		.code	16
  95              		.thumb_func
  96              		.type	Counter_1_Sleep, %function
  97              	Counter_1_Sleep:
  98              	.LFB2:
 107:.\Generated_Source\PSoC4/Counter_1_PM.c **** 
 108:.\Generated_Source\PSoC4/Counter_1_PM.c **** 
 109:.\Generated_Source\PSoC4/Counter_1_PM.c **** /*******************************************************************************
 110:.\Generated_Source\PSoC4/Counter_1_PM.c **** * Function Name: Counter_1_Sleep
 111:.\Generated_Source\PSoC4/Counter_1_PM.c **** ********************************************************************************
 112:.\Generated_Source\PSoC4/Counter_1_PM.c **** * Summary:
 113:.\Generated_Source\PSoC4/Counter_1_PM.c **** *     Stop and Save the user configuration
 114:.\Generated_Source\PSoC4/Counter_1_PM.c **** *
 115:.\Generated_Source\PSoC4/Counter_1_PM.c **** * Parameters:  
 116:.\Generated_Source\PSoC4/Counter_1_PM.c **** *  void
 117:.\Generated_Source\PSoC4/Counter_1_PM.c **** *
 118:.\Generated_Source\PSoC4/Counter_1_PM.c **** * Return: 
 119:.\Generated_Source\PSoC4/Counter_1_PM.c **** *  void
 120:.\Generated_Source\PSoC4/Counter_1_PM.c **** *
 121:.\Generated_Source\PSoC4/Counter_1_PM.c **** * Global variables:
 122:.\Generated_Source\PSoC4/Counter_1_PM.c **** *  Counter_1_backup.enableState:  Is modified depending on the enable 
 123:.\Generated_Source\PSoC4/Counter_1_PM.c **** *  state of the block before entering sleep mode.
 124:.\Generated_Source\PSoC4/Counter_1_PM.c **** *
 125:.\Generated_Source\PSoC4/Counter_1_PM.c **** *******************************************************************************/
 126:.\Generated_Source\PSoC4/Counter_1_PM.c **** void Counter_1_Sleep(void) 
 127:.\Generated_Source\PSoC4/Counter_1_PM.c **** {
  99              		.loc 1 127 0
 100              		.cfi_startproc
 101 0000 80B5     		push	{r7, lr}
ARM GAS  F:\UTILIS~1\demasson\AppData\Local\Temp\cc7cZjN3.s 			page 5


 102              	.LCFI4:
 103              		.cfi_def_cfa_offset 8
 104              		.cfi_offset 7, -8
 105              		.cfi_offset 14, -4
 106 0002 00AF     		add	r7, sp, #0
 107              	.LCFI5:
 108              		.cfi_def_cfa_register 7
 128:.\Generated_Source\PSoC4/Counter_1_PM.c ****     #if(!Counter_1_ControlRegRemoved)
 129:.\Generated_Source\PSoC4/Counter_1_PM.c ****         /* Save Counter's enable state */
 130:.\Generated_Source\PSoC4/Counter_1_PM.c ****         if(Counter_1_CTRL_ENABLE == (Counter_1_CONTROL & Counter_1_CTRL_ENABLE))
 131:.\Generated_Source\PSoC4/Counter_1_PM.c ****         {
 132:.\Generated_Source\PSoC4/Counter_1_PM.c ****             /* Counter is enabled */
 133:.\Generated_Source\PSoC4/Counter_1_PM.c ****             Counter_1_backup.CounterEnableState = 1u;
 134:.\Generated_Source\PSoC4/Counter_1_PM.c ****         }
 135:.\Generated_Source\PSoC4/Counter_1_PM.c ****         else
 136:.\Generated_Source\PSoC4/Counter_1_PM.c ****         {
 137:.\Generated_Source\PSoC4/Counter_1_PM.c ****             /* Counter is disabled */
 138:.\Generated_Source\PSoC4/Counter_1_PM.c ****             Counter_1_backup.CounterEnableState = 0u;
 139:.\Generated_Source\PSoC4/Counter_1_PM.c ****         }
 140:.\Generated_Source\PSoC4/Counter_1_PM.c ****     #else
 141:.\Generated_Source\PSoC4/Counter_1_PM.c ****         Counter_1_backup.CounterEnableState = 1u;
 109              		.loc 1 141 0
 110 0004 074B     		ldr	r3, .L9
 111 0006 0122     		mov	r2, #1
 112 0008 1A70     		strb	r2, [r3]
 142:.\Generated_Source\PSoC4/Counter_1_PM.c ****         if(Counter_1_backup.CounterEnableState != 0u)
 113              		.loc 1 142 0
 114 000a 064B     		ldr	r3, .L9
 115 000c 1B78     		ldrb	r3, [r3]
 116 000e 002B     		cmp	r3, #0
 117 0010 02D0     		beq	.L8
 143:.\Generated_Source\PSoC4/Counter_1_PM.c ****         {
 144:.\Generated_Source\PSoC4/Counter_1_PM.c ****             Counter_1_backup.CounterEnableState = 0u;
 118              		.loc 1 144 0
 119 0012 044B     		ldr	r3, .L9
 120 0014 0022     		mov	r2, #0
 121 0016 1A70     		strb	r2, [r3]
 122              	.L8:
 145:.\Generated_Source\PSoC4/Counter_1_PM.c ****         }
 146:.\Generated_Source\PSoC4/Counter_1_PM.c ****     #endif /* (!Counter_1_ControlRegRemoved) */
 147:.\Generated_Source\PSoC4/Counter_1_PM.c ****     
 148:.\Generated_Source\PSoC4/Counter_1_PM.c ****     Counter_1_Stop();
 123              		.loc 1 148 0
 124 0018 FFF7FEFF 		bl	Counter_1_Stop
 149:.\Generated_Source\PSoC4/Counter_1_PM.c ****     Counter_1_SaveConfig();
 125              		.loc 1 149 0
 126 001c FFF7FEFF 		bl	Counter_1_SaveConfig
 150:.\Generated_Source\PSoC4/Counter_1_PM.c **** }
 127              		.loc 1 150 0
 128 0020 BD46     		mov	sp, r7
 129              		@ sp needed for prologue
 130 0022 80BD     		pop	{r7, pc}
 131              	.L10:
 132              		.align	2
 133              	.L9:
 134 0024 00000000 		.word	Counter_1_backup
 135              		.cfi_endproc
ARM GAS  F:\UTILIS~1\demasson\AppData\Local\Temp\cc7cZjN3.s 			page 6


 136              	.LFE2:
 137              		.size	Counter_1_Sleep, .-Counter_1_Sleep
 138              		.section	.text.Counter_1_Wakeup,"ax",%progbits
 139              		.align	2
 140              		.global	Counter_1_Wakeup
 141              		.code	16
 142              		.thumb_func
 143              		.type	Counter_1_Wakeup, %function
 144              	Counter_1_Wakeup:
 145              	.LFB3:
 151:.\Generated_Source\PSoC4/Counter_1_PM.c **** 
 152:.\Generated_Source\PSoC4/Counter_1_PM.c **** 
 153:.\Generated_Source\PSoC4/Counter_1_PM.c **** /*******************************************************************************
 154:.\Generated_Source\PSoC4/Counter_1_PM.c **** * Function Name: Counter_1_Wakeup
 155:.\Generated_Source\PSoC4/Counter_1_PM.c **** ********************************************************************************
 156:.\Generated_Source\PSoC4/Counter_1_PM.c **** *
 157:.\Generated_Source\PSoC4/Counter_1_PM.c **** * Summary:
 158:.\Generated_Source\PSoC4/Counter_1_PM.c **** *  Restores and enables the user configuration
 159:.\Generated_Source\PSoC4/Counter_1_PM.c **** *  
 160:.\Generated_Source\PSoC4/Counter_1_PM.c **** * Parameters:  
 161:.\Generated_Source\PSoC4/Counter_1_PM.c **** *  void
 162:.\Generated_Source\PSoC4/Counter_1_PM.c **** *
 163:.\Generated_Source\PSoC4/Counter_1_PM.c **** * Return: 
 164:.\Generated_Source\PSoC4/Counter_1_PM.c **** *  void
 165:.\Generated_Source\PSoC4/Counter_1_PM.c **** *
 166:.\Generated_Source\PSoC4/Counter_1_PM.c **** * Global variables:
 167:.\Generated_Source\PSoC4/Counter_1_PM.c **** *  Counter_1_backup.enableState:  Is used to restore the enable state of 
 168:.\Generated_Source\PSoC4/Counter_1_PM.c **** *  block on wakeup from sleep mode.
 169:.\Generated_Source\PSoC4/Counter_1_PM.c **** *
 170:.\Generated_Source\PSoC4/Counter_1_PM.c **** *******************************************************************************/
 171:.\Generated_Source\PSoC4/Counter_1_PM.c **** void Counter_1_Wakeup(void) 
 172:.\Generated_Source\PSoC4/Counter_1_PM.c **** {
 146              		.loc 1 172 0
 147              		.cfi_startproc
 148 0000 80B5     		push	{r7, lr}
 149              	.LCFI6:
 150              		.cfi_def_cfa_offset 8
 151              		.cfi_offset 7, -8
 152              		.cfi_offset 14, -4
 153 0002 00AF     		add	r7, sp, #0
 154              	.LCFI7:
 155              		.cfi_def_cfa_register 7
 173:.\Generated_Source\PSoC4/Counter_1_PM.c ****     Counter_1_RestoreConfig();
 156              		.loc 1 173 0
 157 0004 FFF7FEFF 		bl	Counter_1_RestoreConfig
 174:.\Generated_Source\PSoC4/Counter_1_PM.c ****     #if(!Counter_1_ControlRegRemoved)
 175:.\Generated_Source\PSoC4/Counter_1_PM.c ****         if(Counter_1_backup.CounterEnableState == 1u)
 176:.\Generated_Source\PSoC4/Counter_1_PM.c ****         {
 177:.\Generated_Source\PSoC4/Counter_1_PM.c ****             /* Enable Counter's operation */
 178:.\Generated_Source\PSoC4/Counter_1_PM.c ****             Counter_1_Enable();
 179:.\Generated_Source\PSoC4/Counter_1_PM.c ****         } /* Do nothing if Counter was disabled before */    
 180:.\Generated_Source\PSoC4/Counter_1_PM.c ****     #endif /* (!Counter_1_ControlRegRemoved) */
 181:.\Generated_Source\PSoC4/Counter_1_PM.c ****     
 182:.\Generated_Source\PSoC4/Counter_1_PM.c **** }
 158              		.loc 1 182 0
 159 0008 BD46     		mov	sp, r7
 160              		@ sp needed for prologue
ARM GAS  F:\UTILIS~1\demasson\AppData\Local\Temp\cc7cZjN3.s 			page 7


 161 000a 80BD     		pop	{r7, pc}
 162              		.cfi_endproc
 163              	.LFE3:
 164              		.size	Counter_1_Wakeup, .-Counter_1_Wakeup
 165              		.text
 166              	.Letext0:
 167              		.file 2 ".\\Generated_Source\\PSoC4\\cytypes.h"
 168              		.file 3 ".\\Generated_Source\\PSoC4\\Counter_1.h"