ARM GAS  F:\UTILIS~1\demasson\AppData\Local\Temp\ccPrsKkU.s 			page 1


   1              		.cpu cortex-m0
   2              		.fpu softvfp
   3              		.eabi_attribute 20, 1
   4              		.eabi_attribute 21, 1
   5              		.eabi_attribute 23, 3
   6              		.eabi_attribute 24, 1
   7              		.eabi_attribute 25, 1
   8              		.eabi_attribute 26, 1
   9              		.eabi_attribute 30, 6
  10              		.eabi_attribute 34, 0
  11              		.eabi_attribute 18, 4
  12              		.code	16
  13              		.file	"Counter_1.c"
  14              		.text
  15              	.Ltext0:
  16              		.cfi_sections	.debug_frame
  17              		.global	Counter_1_initVar
  18              		.bss
  19              		.type	Counter_1_initVar, %object
  20              		.size	Counter_1_initVar, 1
  21              	Counter_1_initVar:
  22 0000 00       		.space	1
  23              		.section	.text.Counter_1_Init,"ax",%progbits
  24              		.align	2
  25              		.global	Counter_1_Init
  26              		.code	16
  27              		.thumb_func
  28              		.type	Counter_1_Init, %function
  29              	Counter_1_Init:
  30              	.LFB0:
  31              		.file 1 ".\\Generated_Source\\PSoC4\\Counter_1.c"
   1:.\Generated_Source\PSoC4/Counter_1.c **** /*******************************************************************************
   2:.\Generated_Source\PSoC4/Counter_1.c **** * File Name: Counter_1.c  
   3:.\Generated_Source\PSoC4/Counter_1.c **** * Version 2.40
   4:.\Generated_Source\PSoC4/Counter_1.c **** *
   5:.\Generated_Source\PSoC4/Counter_1.c **** *  Description:
   6:.\Generated_Source\PSoC4/Counter_1.c **** *     The Counter component consists of a 8, 16, 24 or 32-bit counter with
   7:.\Generated_Source\PSoC4/Counter_1.c **** *     a selectable period between 2 and 2^Width - 1.  
   8:.\Generated_Source\PSoC4/Counter_1.c **** *
   9:.\Generated_Source\PSoC4/Counter_1.c **** *   Note:
  10:.\Generated_Source\PSoC4/Counter_1.c **** *     None
  11:.\Generated_Source\PSoC4/Counter_1.c **** *
  12:.\Generated_Source\PSoC4/Counter_1.c **** *******************************************************************************
  13:.\Generated_Source\PSoC4/Counter_1.c **** * Copyright 2008-2012, Cypress Semiconductor Corporation.  All rights reserved.
  14:.\Generated_Source\PSoC4/Counter_1.c **** * You may use this file only in accordance with the license, terms, conditions, 
  15:.\Generated_Source\PSoC4/Counter_1.c **** * disclaimers, and limitations in the end user license agreement accompanying 
  16:.\Generated_Source\PSoC4/Counter_1.c **** * the software package with which this file was provided.
  17:.\Generated_Source\PSoC4/Counter_1.c **** ********************************************************************************/
  18:.\Generated_Source\PSoC4/Counter_1.c **** 
  19:.\Generated_Source\PSoC4/Counter_1.c **** #include "Counter_1.h"
  20:.\Generated_Source\PSoC4/Counter_1.c **** 
  21:.\Generated_Source\PSoC4/Counter_1.c **** uint8 Counter_1_initVar = 0u;
  22:.\Generated_Source\PSoC4/Counter_1.c **** 
  23:.\Generated_Source\PSoC4/Counter_1.c **** 
  24:.\Generated_Source\PSoC4/Counter_1.c **** /*******************************************************************************
  25:.\Generated_Source\PSoC4/Counter_1.c **** * Function Name: Counter_1_Init
  26:.\Generated_Source\PSoC4/Counter_1.c **** ********************************************************************************
ARM GAS  F:\UTILIS~1\demasson\AppData\Local\Temp\ccPrsKkU.s 			page 2


  27:.\Generated_Source\PSoC4/Counter_1.c **** * Summary:
  28:.\Generated_Source\PSoC4/Counter_1.c **** *     Initialize to the schematic state
  29:.\Generated_Source\PSoC4/Counter_1.c **** * 
  30:.\Generated_Source\PSoC4/Counter_1.c **** * Parameters:  
  31:.\Generated_Source\PSoC4/Counter_1.c **** *  void  
  32:.\Generated_Source\PSoC4/Counter_1.c **** *
  33:.\Generated_Source\PSoC4/Counter_1.c **** * Return: 
  34:.\Generated_Source\PSoC4/Counter_1.c **** *  void
  35:.\Generated_Source\PSoC4/Counter_1.c **** *
  36:.\Generated_Source\PSoC4/Counter_1.c **** *******************************************************************************/
  37:.\Generated_Source\PSoC4/Counter_1.c **** void Counter_1_Init(void) 
  38:.\Generated_Source\PSoC4/Counter_1.c **** {
  32              		.loc 1 38 0
  33              		.cfi_startproc
  34 0000 90B5     		push	{r4, r7, lr}
  35              	.LCFI0:
  36              		.cfi_def_cfa_offset 12
  37              		.cfi_offset 4, -12
  38              		.cfi_offset 7, -8
  39              		.cfi_offset 14, -4
  40 0002 83B0     		sub	sp, sp, #12
  41              	.LCFI1:
  42              		.cfi_def_cfa_offset 24
  43 0004 00AF     		add	r7, sp, #0
  44              	.LCFI2:
  45              		.cfi_def_cfa_register 7
  39:.\Generated_Source\PSoC4/Counter_1.c ****         #if (!Counter_1_UsingFixedFunction && !Counter_1_ControlRegRemoved)
  40:.\Generated_Source\PSoC4/Counter_1.c ****             uint8 ctrl;
  41:.\Generated_Source\PSoC4/Counter_1.c ****         #endif /* (!Counter_1_UsingFixedFunction && !Counter_1_ControlRegRemoved) */
  42:.\Generated_Source\PSoC4/Counter_1.c ****         
  43:.\Generated_Source\PSoC4/Counter_1.c ****         #if(!Counter_1_UsingFixedFunction) 
  44:.\Generated_Source\PSoC4/Counter_1.c ****             /* Interrupt State Backup for Critical Region*/
  45:.\Generated_Source\PSoC4/Counter_1.c ****             uint8 Counter_1_interruptState;
  46:.\Generated_Source\PSoC4/Counter_1.c ****         #endif /* (!Counter_1_UsingFixedFunction) */
  47:.\Generated_Source\PSoC4/Counter_1.c ****         
  48:.\Generated_Source\PSoC4/Counter_1.c ****         #if (Counter_1_UsingFixedFunction)
  49:.\Generated_Source\PSoC4/Counter_1.c ****             /* Clear all bits but the enable bit (if it's already set for Timer operation */
  50:.\Generated_Source\PSoC4/Counter_1.c ****             Counter_1_CONTROL &= Counter_1_CTRL_ENABLE;
  51:.\Generated_Source\PSoC4/Counter_1.c ****             
  52:.\Generated_Source\PSoC4/Counter_1.c ****             /* Clear the mode bits for continuous run mode */
  53:.\Generated_Source\PSoC4/Counter_1.c ****             #if (CY_PSOC5A)
  54:.\Generated_Source\PSoC4/Counter_1.c ****                 Counter_1_CONTROL2 &= ((uint8)(~Counter_1_CTRL_MODE_MASK));
  55:.\Generated_Source\PSoC4/Counter_1.c ****             #endif /* (CY_PSOC5A) */
  56:.\Generated_Source\PSoC4/Counter_1.c ****             #if (CY_PSOC3 || CY_PSOC5LP)
  57:.\Generated_Source\PSoC4/Counter_1.c ****                 Counter_1_CONTROL3 &= ((uint8)(~Counter_1_CTRL_MODE_MASK));                
  58:.\Generated_Source\PSoC4/Counter_1.c ****             #endif /* (CY_PSOC3 || CY_PSOC5LP) */
  59:.\Generated_Source\PSoC4/Counter_1.c ****             /* Check if One Shot mode is enabled i.e. RunMode !=0*/
  60:.\Generated_Source\PSoC4/Counter_1.c ****             #if (Counter_1_RunModeUsed != 0x0u)
  61:.\Generated_Source\PSoC4/Counter_1.c ****                 /* Set 3rd bit of Control register to enable one shot mode */
  62:.\Generated_Source\PSoC4/Counter_1.c ****                 Counter_1_CONTROL |= Counter_1_ONESHOT;
  63:.\Generated_Source\PSoC4/Counter_1.c ****             #endif /* (Counter_1_RunModeUsed != 0x0u) */
  64:.\Generated_Source\PSoC4/Counter_1.c ****             
  65:.\Generated_Source\PSoC4/Counter_1.c ****             /* Set the IRQ to use the status register interrupts */
  66:.\Generated_Source\PSoC4/Counter_1.c ****             Counter_1_CONTROL2 |= Counter_1_CTRL2_IRQ_SEL;
  67:.\Generated_Source\PSoC4/Counter_1.c ****             
  68:.\Generated_Source\PSoC4/Counter_1.c ****             /* Clear and Set SYNCTC and SYNCCMP bits of RT1 register */
  69:.\Generated_Source\PSoC4/Counter_1.c ****             Counter_1_RT1 &= ((uint8)(~Counter_1_RT1_MASK));
ARM GAS  F:\UTILIS~1\demasson\AppData\Local\Temp\ccPrsKkU.s 			page 3


  70:.\Generated_Source\PSoC4/Counter_1.c ****             Counter_1_RT1 |= Counter_1_SYNC;     
  71:.\Generated_Source\PSoC4/Counter_1.c ****                     
  72:.\Generated_Source\PSoC4/Counter_1.c ****             /*Enable DSI Sync all all inputs of the Timer*/
  73:.\Generated_Source\PSoC4/Counter_1.c ****             Counter_1_RT1 &= ((uint8)(~Counter_1_SYNCDSI_MASK));
  74:.\Generated_Source\PSoC4/Counter_1.c ****             Counter_1_RT1 |= Counter_1_SYNCDSI_EN;
  75:.\Generated_Source\PSoC4/Counter_1.c **** 
  76:.\Generated_Source\PSoC4/Counter_1.c ****         #else
  77:.\Generated_Source\PSoC4/Counter_1.c ****             #if(!Counter_1_ControlRegRemoved)
  78:.\Generated_Source\PSoC4/Counter_1.c ****             /* Set the default compare mode defined in the parameter */
  79:.\Generated_Source\PSoC4/Counter_1.c ****             ctrl = Counter_1_CONTROL & ((uint8)(~Counter_1_CTRL_CMPMODE_MASK));
  80:.\Generated_Source\PSoC4/Counter_1.c ****             Counter_1_CONTROL = ctrl | Counter_1_DEFAULT_COMPARE_MODE;
  81:.\Generated_Source\PSoC4/Counter_1.c ****             
  82:.\Generated_Source\PSoC4/Counter_1.c ****             /* Set the default capture mode defined in the parameter */
  83:.\Generated_Source\PSoC4/Counter_1.c ****             ctrl = Counter_1_CONTROL & ((uint8)(~Counter_1_CTRL_CAPMODE_MASK));
  84:.\Generated_Source\PSoC4/Counter_1.c ****             
  85:.\Generated_Source\PSoC4/Counter_1.c ****             #if( 0 != Counter_1_CAPTURE_MODE_CONF)
  86:.\Generated_Source\PSoC4/Counter_1.c ****                 Counter_1_CONTROL = ctrl | Counter_1_DEFAULT_CAPTURE_MODE;
  87:.\Generated_Source\PSoC4/Counter_1.c ****             #else
  88:.\Generated_Source\PSoC4/Counter_1.c ****                 Counter_1_CONTROL = ctrl;
  89:.\Generated_Source\PSoC4/Counter_1.c ****             #endif /* 0 != Counter_1_CAPTURE_MODE */ 
  90:.\Generated_Source\PSoC4/Counter_1.c ****             
  91:.\Generated_Source\PSoC4/Counter_1.c ****             #endif /* (!Counter_1_ControlRegRemoved) */
  92:.\Generated_Source\PSoC4/Counter_1.c ****         #endif /* (Counter_1_UsingFixedFunction) */
  93:.\Generated_Source\PSoC4/Counter_1.c ****         
  94:.\Generated_Source\PSoC4/Counter_1.c ****         /* Clear all data in the FIFO's */
  95:.\Generated_Source\PSoC4/Counter_1.c ****         #if (!Counter_1_UsingFixedFunction)
  96:.\Generated_Source\PSoC4/Counter_1.c ****             Counter_1_ClearFIFO();
  46              		.loc 1 96 0
  47 0006 FFF7FEFF 		bl	Counter_1_ClearFIFO
  97:.\Generated_Source\PSoC4/Counter_1.c ****         #endif /* (!Counter_1_UsingFixedFunction) */
  98:.\Generated_Source\PSoC4/Counter_1.c ****         
  99:.\Generated_Source\PSoC4/Counter_1.c ****         /* Set Initial values from Configuration */
 100:.\Generated_Source\PSoC4/Counter_1.c ****         Counter_1_WritePeriod(Counter_1_INIT_PERIOD_VALUE);
  48              		.loc 1 100 0
  49 000a 124B     		ldr	r3, .L2
  50 000c 181C     		mov	r0, r3
  51 000e FFF7FEFF 		bl	Counter_1_WritePeriod
 101:.\Generated_Source\PSoC4/Counter_1.c ****         #if (!(Counter_1_UsingFixedFunction && (CY_PSOC5A)))
 102:.\Generated_Source\PSoC4/Counter_1.c ****             Counter_1_WriteCounter(Counter_1_INIT_COUNTER_VALUE);
  52              		.loc 1 102 0
  53 0012 0020     		mov	r0, #0
  54 0014 FFF7FEFF 		bl	Counter_1_WriteCounter
 103:.\Generated_Source\PSoC4/Counter_1.c ****         #endif /* (!(Counter_1_UsingFixedFunction && (CY_PSOC5A))) */
 104:.\Generated_Source\PSoC4/Counter_1.c ****         Counter_1_SetInterruptMode(Counter_1_INIT_INTERRUPTS_MASK);
  55              		.loc 1 104 0
  56 0018 0020     		mov	r0, #0
  57 001a FFF7FEFF 		bl	Counter_1_SetInterruptMode
 105:.\Generated_Source\PSoC4/Counter_1.c ****         
 106:.\Generated_Source\PSoC4/Counter_1.c ****         #if (!Counter_1_UsingFixedFunction)
 107:.\Generated_Source\PSoC4/Counter_1.c ****             /* Read the status register to clear the unwanted interrupts */
 108:.\Generated_Source\PSoC4/Counter_1.c ****             (void)Counter_1_ReadStatusRegister();
  58              		.loc 1 108 0
  59 001e FFF7FEFF 		bl	Counter_1_ReadStatusRegister
 109:.\Generated_Source\PSoC4/Counter_1.c ****             /* Set the compare value (only available to non-fixed function implementation */
 110:.\Generated_Source\PSoC4/Counter_1.c ****             Counter_1_WriteCompare(Counter_1_INIT_COMPARE_VALUE);
  60              		.loc 1 110 0
  61 0022 8020     		mov	r0, #128
ARM GAS  F:\UTILIS~1\demasson\AppData\Local\Temp\ccPrsKkU.s 			page 4


  62 0024 FFF7FEFF 		bl	Counter_1_WriteCompare
 111:.\Generated_Source\PSoC4/Counter_1.c ****             /* Use the interrupt output of the status register for IRQ output */
 112:.\Generated_Source\PSoC4/Counter_1.c ****             
 113:.\Generated_Source\PSoC4/Counter_1.c ****             /* CyEnterCriticalRegion and CyExitCriticalRegion are used to mark following region cri
 114:.\Generated_Source\PSoC4/Counter_1.c ****             /* Enter Critical Region*/
 115:.\Generated_Source\PSoC4/Counter_1.c ****             Counter_1_interruptState = CyEnterCriticalSection();
  63              		.loc 1 115 0
  64 0028 FC1D     		add	r4, r7, #7
  65 002a FFF7FEFF 		bl	CyEnterCriticalSection
  66 002e 031C     		mov	r3, r0
  67 0030 2370     		strb	r3, [r4]
 116:.\Generated_Source\PSoC4/Counter_1.c ****             
 117:.\Generated_Source\PSoC4/Counter_1.c ****             Counter_1_STATUS_AUX_CTRL |= Counter_1_STATUS_ACTL_INT_EN_MASK;
  68              		.loc 1 117 0
  69 0032 094B     		ldr	r3, .L2+4
  70 0034 084A     		ldr	r2, .L2+4
  71 0036 1278     		ldrb	r2, [r2]
  72 0038 D2B2     		uxtb	r2, r2
  73 003a 1021     		mov	r1, #16
  74 003c 0A43     		orr	r2, r1
  75 003e D2B2     		uxtb	r2, r2
  76 0040 1A70     		strb	r2, [r3]
 118:.\Generated_Source\PSoC4/Counter_1.c ****             
 119:.\Generated_Source\PSoC4/Counter_1.c ****             /* Exit Critical Region*/
 120:.\Generated_Source\PSoC4/Counter_1.c ****             CyExitCriticalSection(Counter_1_interruptState);
  77              		.loc 1 120 0
  78 0042 FB1D     		add	r3, r7, #7
  79 0044 1B78     		ldrb	r3, [r3]
  80 0046 181C     		mov	r0, r3
  81 0048 FFF7FEFF 		bl	CyExitCriticalSection
 121:.\Generated_Source\PSoC4/Counter_1.c ****             
 122:.\Generated_Source\PSoC4/Counter_1.c ****         #endif /* (!Counter_1_UsingFixedFunction) */
 123:.\Generated_Source\PSoC4/Counter_1.c **** }
  82              		.loc 1 123 0
  83 004c BD46     		mov	sp, r7
  84 004e 03B0     		add	sp, sp, #12
  85              		@ sp needed for prologue
  86 0050 90BD     		pop	{r4, r7, pc}
  87              	.L3:
  88 0052 C046     		.align	2
  89              	.L2:
  90 0054 FFFF0000 		.word	65535
  91 0058 91000F40 		.word	1074725009
  92              		.cfi_endproc
  93              	.LFE0:
  94              		.size	Counter_1_Init, .-Counter_1_Init
  95              		.section	.text.Counter_1_Enable,"ax",%progbits
  96              		.align	2
  97              		.global	Counter_1_Enable
  98              		.code	16
  99              		.thumb_func
 100              		.type	Counter_1_Enable, %function
 101              	Counter_1_Enable:
 102              	.LFB1:
 124:.\Generated_Source\PSoC4/Counter_1.c **** 
 125:.\Generated_Source\PSoC4/Counter_1.c **** 
 126:.\Generated_Source\PSoC4/Counter_1.c **** /*******************************************************************************
ARM GAS  F:\UTILIS~1\demasson\AppData\Local\Temp\ccPrsKkU.s 			page 5


 127:.\Generated_Source\PSoC4/Counter_1.c **** * Function Name: Counter_1_Enable
 128:.\Generated_Source\PSoC4/Counter_1.c **** ********************************************************************************
 129:.\Generated_Source\PSoC4/Counter_1.c **** * Summary:
 130:.\Generated_Source\PSoC4/Counter_1.c **** *     Enable the Counter
 131:.\Generated_Source\PSoC4/Counter_1.c **** * 
 132:.\Generated_Source\PSoC4/Counter_1.c **** * Parameters:  
 133:.\Generated_Source\PSoC4/Counter_1.c **** *  void  
 134:.\Generated_Source\PSoC4/Counter_1.c **** *
 135:.\Generated_Source\PSoC4/Counter_1.c **** * Return: 
 136:.\Generated_Source\PSoC4/Counter_1.c **** *  void
 137:.\Generated_Source\PSoC4/Counter_1.c **** *
 138:.\Generated_Source\PSoC4/Counter_1.c **** * Side Effects: 
 139:.\Generated_Source\PSoC4/Counter_1.c **** *   If the Enable mode is set to Hardware only then this function has no effect 
 140:.\Generated_Source\PSoC4/Counter_1.c **** *   on the operation of the counter.
 141:.\Generated_Source\PSoC4/Counter_1.c **** *
 142:.\Generated_Source\PSoC4/Counter_1.c **** *******************************************************************************/
 143:.\Generated_Source\PSoC4/Counter_1.c **** void Counter_1_Enable(void) 
 144:.\Generated_Source\PSoC4/Counter_1.c **** {
 103              		.loc 1 144 0
 104              		.cfi_startproc
 105 0000 80B5     		push	{r7, lr}
 106              	.LCFI3:
 107              		.cfi_def_cfa_offset 8
 108              		.cfi_offset 7, -8
 109              		.cfi_offset 14, -4
 110 0002 00AF     		add	r7, sp, #0
 111              	.LCFI4:
 112              		.cfi_def_cfa_register 7
 145:.\Generated_Source\PSoC4/Counter_1.c ****     /* Globally Enable the Fixed Function Block chosen */
 146:.\Generated_Source\PSoC4/Counter_1.c ****     #if (Counter_1_UsingFixedFunction)
 147:.\Generated_Source\PSoC4/Counter_1.c ****         Counter_1_GLOBAL_ENABLE |= Counter_1_BLOCK_EN_MASK;
 148:.\Generated_Source\PSoC4/Counter_1.c ****         Counter_1_GLOBAL_STBY_ENABLE |= Counter_1_BLOCK_STBY_EN_MASK;
 149:.\Generated_Source\PSoC4/Counter_1.c ****     #endif /* (Counter_1_UsingFixedFunction) */  
 150:.\Generated_Source\PSoC4/Counter_1.c ****         
 151:.\Generated_Source\PSoC4/Counter_1.c ****     /* Enable the counter from the control register  */
 152:.\Generated_Source\PSoC4/Counter_1.c ****     /* If Fixed Function then make sure Mode is set correctly */
 153:.\Generated_Source\PSoC4/Counter_1.c ****     /* else make sure reset is clear */
 154:.\Generated_Source\PSoC4/Counter_1.c ****     #if(!Counter_1_ControlRegRemoved || Counter_1_UsingFixedFunction)
 155:.\Generated_Source\PSoC4/Counter_1.c ****         Counter_1_CONTROL |= Counter_1_CTRL_ENABLE;                
 156:.\Generated_Source\PSoC4/Counter_1.c ****     #endif /* (!Counter_1_ControlRegRemoved || Counter_1_UsingFixedFunction) */
 157:.\Generated_Source\PSoC4/Counter_1.c ****     
 158:.\Generated_Source\PSoC4/Counter_1.c **** }
 113              		.loc 1 158 0
 114 0004 BD46     		mov	sp, r7
 115              		@ sp needed for prologue
 116 0006 80BD     		pop	{r7, pc}
 117              		.cfi_endproc
 118              	.LFE1:
 119              		.size	Counter_1_Enable, .-Counter_1_Enable
 120              		.section	.text.Counter_1_Start,"ax",%progbits
 121              		.align	2
 122              		.global	Counter_1_Start
 123              		.code	16
 124              		.thumb_func
 125              		.type	Counter_1_Start, %function
 126              	Counter_1_Start:
 127              	.LFB2:
ARM GAS  F:\UTILIS~1\demasson\AppData\Local\Temp\ccPrsKkU.s 			page 6


 159:.\Generated_Source\PSoC4/Counter_1.c **** 
 160:.\Generated_Source\PSoC4/Counter_1.c **** 
 161:.\Generated_Source\PSoC4/Counter_1.c **** /*******************************************************************************
 162:.\Generated_Source\PSoC4/Counter_1.c **** * Function Name: Counter_1_Start
 163:.\Generated_Source\PSoC4/Counter_1.c **** ********************************************************************************
 164:.\Generated_Source\PSoC4/Counter_1.c **** * Summary:
 165:.\Generated_Source\PSoC4/Counter_1.c **** *  Enables the counter for operation 
 166:.\Generated_Source\PSoC4/Counter_1.c **** *
 167:.\Generated_Source\PSoC4/Counter_1.c **** * Parameters:  
 168:.\Generated_Source\PSoC4/Counter_1.c **** *  void  
 169:.\Generated_Source\PSoC4/Counter_1.c **** *
 170:.\Generated_Source\PSoC4/Counter_1.c **** * Return: 
 171:.\Generated_Source\PSoC4/Counter_1.c **** *  void
 172:.\Generated_Source\PSoC4/Counter_1.c **** *
 173:.\Generated_Source\PSoC4/Counter_1.c **** * Global variables:
 174:.\Generated_Source\PSoC4/Counter_1.c **** *  Counter_1_initVar: Is modified when this function is called for the  
 175:.\Generated_Source\PSoC4/Counter_1.c **** *   first time. Is used to ensure that initialization happens only once.
 176:.\Generated_Source\PSoC4/Counter_1.c **** *
 177:.\Generated_Source\PSoC4/Counter_1.c **** *******************************************************************************/
 178:.\Generated_Source\PSoC4/Counter_1.c **** void Counter_1_Start(void) 
 179:.\Generated_Source\PSoC4/Counter_1.c **** {
 128              		.loc 1 179 0
 129              		.cfi_startproc
 130 0000 80B5     		push	{r7, lr}
 131              	.LCFI5:
 132              		.cfi_def_cfa_offset 8
 133              		.cfi_offset 7, -8
 134              		.cfi_offset 14, -4
 135 0002 00AF     		add	r7, sp, #0
 136              	.LCFI6:
 137              		.cfi_def_cfa_register 7
 180:.\Generated_Source\PSoC4/Counter_1.c ****     if(Counter_1_initVar == 0u)
 138              		.loc 1 180 0
 139 0004 064B     		ldr	r3, .L7
 140 0006 1B78     		ldrb	r3, [r3]
 141 0008 002B     		cmp	r3, #0
 142 000a 04D1     		bne	.L6
 181:.\Generated_Source\PSoC4/Counter_1.c ****     {
 182:.\Generated_Source\PSoC4/Counter_1.c ****         Counter_1_Init();
 143              		.loc 1 182 0
 144 000c FFF7FEFF 		bl	Counter_1_Init
 183:.\Generated_Source\PSoC4/Counter_1.c ****         
 184:.\Generated_Source\PSoC4/Counter_1.c ****         Counter_1_initVar = 1u; /* Clear this bit for Initialization */        
 145              		.loc 1 184 0
 146 0010 034B     		ldr	r3, .L7
 147 0012 0122     		mov	r2, #1
 148 0014 1A70     		strb	r2, [r3]
 149              	.L6:
 185:.\Generated_Source\PSoC4/Counter_1.c ****     }
 186:.\Generated_Source\PSoC4/Counter_1.c ****     
 187:.\Generated_Source\PSoC4/Counter_1.c ****     /* Enable the Counter */
 188:.\Generated_Source\PSoC4/Counter_1.c ****     Counter_1_Enable();        
 150              		.loc 1 188 0
 151 0016 FFF7FEFF 		bl	Counter_1_Enable
 189:.\Generated_Source\PSoC4/Counter_1.c **** }
 152              		.loc 1 189 0
 153 001a BD46     		mov	sp, r7
ARM GAS  F:\UTILIS~1\demasson\AppData\Local\Temp\ccPrsKkU.s 			page 7


 154              		@ sp needed for prologue
 155 001c 80BD     		pop	{r7, pc}
 156              	.L8:
 157 001e C046     		.align	2
 158              	.L7:
 159 0020 00000000 		.word	Counter_1_initVar
 160              		.cfi_endproc
 161              	.LFE2:
 162              		.size	Counter_1_Start, .-Counter_1_Start
 163              		.section	.text.Counter_1_Stop,"ax",%progbits
 164              		.align	2
 165              		.global	Counter_1_Stop
 166              		.code	16
 167              		.thumb_func
 168              		.type	Counter_1_Stop, %function
 169              	Counter_1_Stop:
 170              	.LFB3:
 190:.\Generated_Source\PSoC4/Counter_1.c **** 
 191:.\Generated_Source\PSoC4/Counter_1.c **** 
 192:.\Generated_Source\PSoC4/Counter_1.c **** /*******************************************************************************
 193:.\Generated_Source\PSoC4/Counter_1.c **** * Function Name: Counter_1_Stop
 194:.\Generated_Source\PSoC4/Counter_1.c **** ********************************************************************************
 195:.\Generated_Source\PSoC4/Counter_1.c **** * Summary:
 196:.\Generated_Source\PSoC4/Counter_1.c **** * Halts the counter, but does not change any modes or disable interrupts.
 197:.\Generated_Source\PSoC4/Counter_1.c **** *
 198:.\Generated_Source\PSoC4/Counter_1.c **** * Parameters:  
 199:.\Generated_Source\PSoC4/Counter_1.c **** *  void  
 200:.\Generated_Source\PSoC4/Counter_1.c **** *
 201:.\Generated_Source\PSoC4/Counter_1.c **** * Return: 
 202:.\Generated_Source\PSoC4/Counter_1.c **** *  void
 203:.\Generated_Source\PSoC4/Counter_1.c **** *
 204:.\Generated_Source\PSoC4/Counter_1.c **** * Side Effects: If the Enable mode is set to Hardware only then this function
 205:.\Generated_Source\PSoC4/Counter_1.c **** *               has no effect on the operation of the counter.
 206:.\Generated_Source\PSoC4/Counter_1.c **** *
 207:.\Generated_Source\PSoC4/Counter_1.c **** *******************************************************************************/
 208:.\Generated_Source\PSoC4/Counter_1.c **** void Counter_1_Stop(void) 
 209:.\Generated_Source\PSoC4/Counter_1.c **** {
 171              		.loc 1 209 0
 172              		.cfi_startproc
 173 0000 80B5     		push	{r7, lr}
 174              	.LCFI7:
 175              		.cfi_def_cfa_offset 8
 176              		.cfi_offset 7, -8
 177              		.cfi_offset 14, -4
 178 0002 00AF     		add	r7, sp, #0
 179              	.LCFI8:
 180              		.cfi_def_cfa_register 7
 210:.\Generated_Source\PSoC4/Counter_1.c ****     /* Disable Counter */
 211:.\Generated_Source\PSoC4/Counter_1.c ****     #if(!Counter_1_ControlRegRemoved || Counter_1_UsingFixedFunction)
 212:.\Generated_Source\PSoC4/Counter_1.c ****         Counter_1_CONTROL &= ((uint8)(~Counter_1_CTRL_ENABLE));        
 213:.\Generated_Source\PSoC4/Counter_1.c ****     #endif /* (!Counter_1_ControlRegRemoved || Counter_1_UsingFixedFunction) */
 214:.\Generated_Source\PSoC4/Counter_1.c ****     
 215:.\Generated_Source\PSoC4/Counter_1.c ****     /* Globally disable the Fixed Function Block chosen */
 216:.\Generated_Source\PSoC4/Counter_1.c ****     #if (Counter_1_UsingFixedFunction)
 217:.\Generated_Source\PSoC4/Counter_1.c ****         Counter_1_GLOBAL_ENABLE &= ((uint8)(~Counter_1_BLOCK_EN_MASK));
 218:.\Generated_Source\PSoC4/Counter_1.c ****         Counter_1_GLOBAL_STBY_ENABLE &= ((uint8)(~Counter_1_BLOCK_STBY_EN_MASK));
 219:.\Generated_Source\PSoC4/Counter_1.c ****     #endif /* (Counter_1_UsingFixedFunction) */
ARM GAS  F:\UTILIS~1\demasson\AppData\Local\Temp\ccPrsKkU.s 			page 8


 220:.\Generated_Source\PSoC4/Counter_1.c **** }
 181              		.loc 1 220 0
 182 0004 BD46     		mov	sp, r7
 183              		@ sp needed for prologue
 184 0006 80BD     		pop	{r7, pc}
 185              		.cfi_endproc
 186              	.LFE3:
 187              		.size	Counter_1_Stop, .-Counter_1_Stop
 188              		.section	.text.Counter_1_SetInterruptMode,"ax",%progbits
 189              		.align	2
 190              		.global	Counter_1_SetInterruptMode
 191              		.code	16
 192              		.thumb_func
 193              		.type	Counter_1_SetInterruptMode, %function
 194              	Counter_1_SetInterruptMode:
 195              	.LFB4:
 221:.\Generated_Source\PSoC4/Counter_1.c **** 
 222:.\Generated_Source\PSoC4/Counter_1.c **** 
 223:.\Generated_Source\PSoC4/Counter_1.c **** /*******************************************************************************
 224:.\Generated_Source\PSoC4/Counter_1.c **** * Function Name: Counter_1_SetInterruptMode
 225:.\Generated_Source\PSoC4/Counter_1.c **** ********************************************************************************
 226:.\Generated_Source\PSoC4/Counter_1.c **** * Summary:
 227:.\Generated_Source\PSoC4/Counter_1.c **** * Configures which interrupt sources are enabled to generate the final interrupt
 228:.\Generated_Source\PSoC4/Counter_1.c **** *
 229:.\Generated_Source\PSoC4/Counter_1.c **** * Parameters:  
 230:.\Generated_Source\PSoC4/Counter_1.c **** *  InterruptsMask: This parameter is an or'd collection of the status bits
 231:.\Generated_Source\PSoC4/Counter_1.c **** *                   which will be allowed to generate the counters interrupt.   
 232:.\Generated_Source\PSoC4/Counter_1.c **** *
 233:.\Generated_Source\PSoC4/Counter_1.c **** * Return: 
 234:.\Generated_Source\PSoC4/Counter_1.c **** *  void
 235:.\Generated_Source\PSoC4/Counter_1.c **** *
 236:.\Generated_Source\PSoC4/Counter_1.c **** *******************************************************************************/
 237:.\Generated_Source\PSoC4/Counter_1.c **** void Counter_1_SetInterruptMode(uint8 interruptsMask) 
 238:.\Generated_Source\PSoC4/Counter_1.c **** {
 196              		.loc 1 238 0
 197              		.cfi_startproc
 198 0000 80B5     		push	{r7, lr}
 199              	.LCFI9:
 200              		.cfi_def_cfa_offset 8
 201              		.cfi_offset 7, -8
 202              		.cfi_offset 14, -4
 203 0002 82B0     		sub	sp, sp, #8
 204              	.LCFI10:
 205              		.cfi_def_cfa_offset 16
 206 0004 00AF     		add	r7, sp, #0
 207              	.LCFI11:
 208              		.cfi_def_cfa_register 7
 209 0006 021C     		mov	r2, r0
 210 0008 FB1D     		add	r3, r7, #7
 211 000a 1A70     		strb	r2, [r3]
 239:.\Generated_Source\PSoC4/Counter_1.c ****     Counter_1_STATUS_MASK = interruptsMask;
 212              		.loc 1 239 0
 213 000c 034B     		ldr	r3, .L11
 214 000e FA1D     		add	r2, r7, #7
 215 0010 1278     		ldrb	r2, [r2]
 216 0012 1A70     		strb	r2, [r3]
 240:.\Generated_Source\PSoC4/Counter_1.c **** }
ARM GAS  F:\UTILIS~1\demasson\AppData\Local\Temp\ccPrsKkU.s 			page 9


 217              		.loc 1 240 0
 218 0014 BD46     		mov	sp, r7
 219 0016 02B0     		add	sp, sp, #8
 220              		@ sp needed for prologue
 221 0018 80BD     		pop	{r7, pc}
 222              	.L12:
 223 001a C046     		.align	2
 224              	.L11:
 225 001c 81000F40 		.word	1074724993
 226              		.cfi_endproc
 227              	.LFE4:
 228              		.size	Counter_1_SetInterruptMode, .-Counter_1_SetInterruptMode
 229              		.section	.text.Counter_1_ReadStatusRegister,"ax",%progbits
 230              		.align	2
 231              		.global	Counter_1_ReadStatusRegister
 232              		.code	16
 233              		.thumb_func
 234              		.type	Counter_1_ReadStatusRegister, %function
 235              	Counter_1_ReadStatusRegister:
 236              	.LFB5:
 241:.\Generated_Source\PSoC4/Counter_1.c **** 
 242:.\Generated_Source\PSoC4/Counter_1.c **** 
 243:.\Generated_Source\PSoC4/Counter_1.c **** /*******************************************************************************
 244:.\Generated_Source\PSoC4/Counter_1.c **** * Function Name: Counter_1_ReadStatusRegister
 245:.\Generated_Source\PSoC4/Counter_1.c **** ********************************************************************************
 246:.\Generated_Source\PSoC4/Counter_1.c **** * Summary:
 247:.\Generated_Source\PSoC4/Counter_1.c **** *   Reads the status register and returns it's state. This function should use
 248:.\Generated_Source\PSoC4/Counter_1.c **** *       defined types for the bit-field information as the bits in this
 249:.\Generated_Source\PSoC4/Counter_1.c **** *       register may be permuteable.
 250:.\Generated_Source\PSoC4/Counter_1.c **** *
 251:.\Generated_Source\PSoC4/Counter_1.c **** * Parameters:  
 252:.\Generated_Source\PSoC4/Counter_1.c **** *  void
 253:.\Generated_Source\PSoC4/Counter_1.c **** *
 254:.\Generated_Source\PSoC4/Counter_1.c **** * Return: 
 255:.\Generated_Source\PSoC4/Counter_1.c **** *  (uint8) The contents of the status register
 256:.\Generated_Source\PSoC4/Counter_1.c **** *
 257:.\Generated_Source\PSoC4/Counter_1.c **** * Side Effects:
 258:.\Generated_Source\PSoC4/Counter_1.c **** *   Status register bits may be clear on read. 
 259:.\Generated_Source\PSoC4/Counter_1.c **** *
 260:.\Generated_Source\PSoC4/Counter_1.c **** *******************************************************************************/
 261:.\Generated_Source\PSoC4/Counter_1.c **** uint8   Counter_1_ReadStatusRegister(void) 
 262:.\Generated_Source\PSoC4/Counter_1.c **** {
 237              		.loc 1 262 0
 238              		.cfi_startproc
 239 0000 80B5     		push	{r7, lr}
 240              	.LCFI12:
 241              		.cfi_def_cfa_offset 8
 242              		.cfi_offset 7, -8
 243              		.cfi_offset 14, -4
 244 0002 00AF     		add	r7, sp, #0
 245              	.LCFI13:
 246              		.cfi_def_cfa_register 7
 263:.\Generated_Source\PSoC4/Counter_1.c ****     return Counter_1_STATUS;
 247              		.loc 1 263 0
 248 0004 024B     		ldr	r3, .L15
 249 0006 1B78     		ldrb	r3, [r3]
 250 0008 DBB2     		uxtb	r3, r3
ARM GAS  F:\UTILIS~1\demasson\AppData\Local\Temp\ccPrsKkU.s 			page 10


 264:.\Generated_Source\PSoC4/Counter_1.c **** }
 251              		.loc 1 264 0
 252 000a 181C     		mov	r0, r3
 253 000c BD46     		mov	sp, r7
 254              		@ sp needed for prologue
 255 000e 80BD     		pop	{r7, pc}
 256              	.L16:
 257              		.align	2
 258              	.L15:
 259 0010 61000F40 		.word	1074724961
 260              		.cfi_endproc
 261              	.LFE5:
 262              		.size	Counter_1_ReadStatusRegister, .-Counter_1_ReadStatusRegister
 263              		.section	.text.Counter_1_WriteCounter,"ax",%progbits
 264              		.align	2
 265              		.global	Counter_1_WriteCounter
 266              		.code	16
 267              		.thumb_func
 268              		.type	Counter_1_WriteCounter, %function
 269              	Counter_1_WriteCounter:
 270              	.LFB6:
 265:.\Generated_Source\PSoC4/Counter_1.c **** 
 266:.\Generated_Source\PSoC4/Counter_1.c **** 
 267:.\Generated_Source\PSoC4/Counter_1.c **** #if(!Counter_1_ControlRegRemoved)
 268:.\Generated_Source\PSoC4/Counter_1.c **** /*******************************************************************************
 269:.\Generated_Source\PSoC4/Counter_1.c **** * Function Name: Counter_1_ReadControlRegister
 270:.\Generated_Source\PSoC4/Counter_1.c **** ********************************************************************************
 271:.\Generated_Source\PSoC4/Counter_1.c **** * Summary:
 272:.\Generated_Source\PSoC4/Counter_1.c **** *   Reads the control register and returns it's state. This function should use
 273:.\Generated_Source\PSoC4/Counter_1.c **** *       defined types for the bit-field information as the bits in this
 274:.\Generated_Source\PSoC4/Counter_1.c **** *       register may be permuteable.
 275:.\Generated_Source\PSoC4/Counter_1.c **** *
 276:.\Generated_Source\PSoC4/Counter_1.c **** * Parameters:  
 277:.\Generated_Source\PSoC4/Counter_1.c **** *  void
 278:.\Generated_Source\PSoC4/Counter_1.c **** *
 279:.\Generated_Source\PSoC4/Counter_1.c **** * Return: 
 280:.\Generated_Source\PSoC4/Counter_1.c **** *  (uint8) The contents of the control register
 281:.\Generated_Source\PSoC4/Counter_1.c **** *
 282:.\Generated_Source\PSoC4/Counter_1.c **** *******************************************************************************/
 283:.\Generated_Source\PSoC4/Counter_1.c **** uint8   Counter_1_ReadControlRegister(void) 
 284:.\Generated_Source\PSoC4/Counter_1.c **** {
 285:.\Generated_Source\PSoC4/Counter_1.c ****     return Counter_1_CONTROL;
 286:.\Generated_Source\PSoC4/Counter_1.c **** }
 287:.\Generated_Source\PSoC4/Counter_1.c **** 
 288:.\Generated_Source\PSoC4/Counter_1.c **** 
 289:.\Generated_Source\PSoC4/Counter_1.c **** /*******************************************************************************
 290:.\Generated_Source\PSoC4/Counter_1.c **** * Function Name: Counter_1_WriteControlRegister
 291:.\Generated_Source\PSoC4/Counter_1.c **** ********************************************************************************
 292:.\Generated_Source\PSoC4/Counter_1.c **** * Summary:
 293:.\Generated_Source\PSoC4/Counter_1.c **** *   Sets the bit-field of the control register.  This function should use
 294:.\Generated_Source\PSoC4/Counter_1.c **** *       defined types for the bit-field information as the bits in this
 295:.\Generated_Source\PSoC4/Counter_1.c **** *       register may be permuteable.
 296:.\Generated_Source\PSoC4/Counter_1.c **** *
 297:.\Generated_Source\PSoC4/Counter_1.c **** * Parameters:  
 298:.\Generated_Source\PSoC4/Counter_1.c **** *  void
 299:.\Generated_Source\PSoC4/Counter_1.c **** *
 300:.\Generated_Source\PSoC4/Counter_1.c **** * Return: 
ARM GAS  F:\UTILIS~1\demasson\AppData\Local\Temp\ccPrsKkU.s 			page 11


 301:.\Generated_Source\PSoC4/Counter_1.c **** *  (uint8) The contents of the control register
 302:.\Generated_Source\PSoC4/Counter_1.c **** *
 303:.\Generated_Source\PSoC4/Counter_1.c **** *******************************************************************************/
 304:.\Generated_Source\PSoC4/Counter_1.c **** void    Counter_1_WriteControlRegister(uint8 control) 
 305:.\Generated_Source\PSoC4/Counter_1.c **** {
 306:.\Generated_Source\PSoC4/Counter_1.c ****     Counter_1_CONTROL = control;
 307:.\Generated_Source\PSoC4/Counter_1.c **** }
 308:.\Generated_Source\PSoC4/Counter_1.c **** 
 309:.\Generated_Source\PSoC4/Counter_1.c **** #endif  /* (!Counter_1_ControlRegRemoved) */
 310:.\Generated_Source\PSoC4/Counter_1.c **** 
 311:.\Generated_Source\PSoC4/Counter_1.c **** 
 312:.\Generated_Source\PSoC4/Counter_1.c **** #if (!(Counter_1_UsingFixedFunction && (CY_PSOC5A)))
 313:.\Generated_Source\PSoC4/Counter_1.c **** /*******************************************************************************
 314:.\Generated_Source\PSoC4/Counter_1.c **** * Function Name: Counter_1_WriteCounter
 315:.\Generated_Source\PSoC4/Counter_1.c **** ********************************************************************************
 316:.\Generated_Source\PSoC4/Counter_1.c **** * Summary:
 317:.\Generated_Source\PSoC4/Counter_1.c **** *   This funtion is used to set the counter to a specific value
 318:.\Generated_Source\PSoC4/Counter_1.c **** *
 319:.\Generated_Source\PSoC4/Counter_1.c **** * Parameters:  
 320:.\Generated_Source\PSoC4/Counter_1.c **** *  counter:  New counter value. 
 321:.\Generated_Source\PSoC4/Counter_1.c **** *
 322:.\Generated_Source\PSoC4/Counter_1.c **** * Return: 
 323:.\Generated_Source\PSoC4/Counter_1.c **** *  void 
 324:.\Generated_Source\PSoC4/Counter_1.c **** *
 325:.\Generated_Source\PSoC4/Counter_1.c **** *******************************************************************************/
 326:.\Generated_Source\PSoC4/Counter_1.c **** void Counter_1_WriteCounter(uint16 counter) \
 327:.\Generated_Source\PSoC4/Counter_1.c ****                                    
 328:.\Generated_Source\PSoC4/Counter_1.c **** {
 271              		.loc 1 328 0
 272              		.cfi_startproc
 273 0000 80B5     		push	{r7, lr}
 274              	.LCFI14:
 275              		.cfi_def_cfa_offset 8
 276              		.cfi_offset 7, -8
 277              		.cfi_offset 14, -4
 278 0002 82B0     		sub	sp, sp, #8
 279              	.LCFI15:
 280              		.cfi_def_cfa_offset 16
 281 0004 00AF     		add	r7, sp, #0
 282              	.LCFI16:
 283              		.cfi_def_cfa_register 7
 284 0006 021C     		mov	r2, r0
 285 0008 BB1D     		add	r3, r7, #6
 286 000a 1A80     		strh	r2, [r3]
 329:.\Generated_Source\PSoC4/Counter_1.c ****     #if(Counter_1_UsingFixedFunction)
 330:.\Generated_Source\PSoC4/Counter_1.c ****         /* assert if block is already enabled */
 331:.\Generated_Source\PSoC4/Counter_1.c ****         CYASSERT (0u == (Counter_1_GLOBAL_ENABLE & Counter_1_BLOCK_EN_MASK));
 332:.\Generated_Source\PSoC4/Counter_1.c ****         /* If block is disabled, enable it and then write the counter */
 333:.\Generated_Source\PSoC4/Counter_1.c ****         Counter_1_GLOBAL_ENABLE |= Counter_1_BLOCK_EN_MASK;
 334:.\Generated_Source\PSoC4/Counter_1.c ****         CY_SET_REG16(Counter_1_COUNTER_LSB_PTR, (uint16)counter);
 335:.\Generated_Source\PSoC4/Counter_1.c ****         Counter_1_GLOBAL_ENABLE &= ((uint8)(~Counter_1_BLOCK_EN_MASK));
 336:.\Generated_Source\PSoC4/Counter_1.c ****     #else
 337:.\Generated_Source\PSoC4/Counter_1.c ****         CY_SET_REG16(Counter_1_COUNTER_LSB_PTR, counter);
 287              		.loc 1 337 0
 288 000c 034B     		ldr	r3, .L18
 289 000e BA1D     		add	r2, r7, #6
 290 0010 1288     		ldrh	r2, [r2]
ARM GAS  F:\UTILIS~1\demasson\AppData\Local\Temp\ccPrsKkU.s 			page 12


 291 0012 1A80     		strh	r2, [r3]
 338:.\Generated_Source\PSoC4/Counter_1.c ****     #endif /* (Counter_1_UsingFixedFunction) */
 339:.\Generated_Source\PSoC4/Counter_1.c **** }
 292              		.loc 1 339 0
 293 0014 BD46     		mov	sp, r7
 294 0016 02B0     		add	sp, sp, #8
 295              		@ sp needed for prologue
 296 0018 80BD     		pop	{r7, pc}
 297              	.L19:
 298 001a C046     		.align	2
 299              	.L18:
 300 001c 00100F40 		.word	1074728960
 301              		.cfi_endproc
 302              	.LFE6:
 303              		.size	Counter_1_WriteCounter, .-Counter_1_WriteCounter
 304              		.section	.text.Counter_1_ReadCounter,"ax",%progbits
 305              		.align	2
 306              		.global	Counter_1_ReadCounter
 307              		.code	16
 308              		.thumb_func
 309              		.type	Counter_1_ReadCounter, %function
 310              	Counter_1_ReadCounter:
 311              	.LFB7:
 340:.\Generated_Source\PSoC4/Counter_1.c **** #endif /* (!(Counter_1_UsingFixedFunction && (CY_PSOC5A))) */
 341:.\Generated_Source\PSoC4/Counter_1.c **** 
 342:.\Generated_Source\PSoC4/Counter_1.c **** 
 343:.\Generated_Source\PSoC4/Counter_1.c **** /*******************************************************************************
 344:.\Generated_Source\PSoC4/Counter_1.c **** * Function Name: Counter_1_ReadCounter
 345:.\Generated_Source\PSoC4/Counter_1.c **** ********************************************************************************
 346:.\Generated_Source\PSoC4/Counter_1.c **** * Summary:
 347:.\Generated_Source\PSoC4/Counter_1.c **** * Returns the current value of the counter.  It doesn't matter
 348:.\Generated_Source\PSoC4/Counter_1.c **** * if the counter is enabled or running.
 349:.\Generated_Source\PSoC4/Counter_1.c **** *
 350:.\Generated_Source\PSoC4/Counter_1.c **** * Parameters:  
 351:.\Generated_Source\PSoC4/Counter_1.c **** *  void:  
 352:.\Generated_Source\PSoC4/Counter_1.c **** *
 353:.\Generated_Source\PSoC4/Counter_1.c **** * Return: 
 354:.\Generated_Source\PSoC4/Counter_1.c **** *  (uint16) The present value of the counter.
 355:.\Generated_Source\PSoC4/Counter_1.c **** *
 356:.\Generated_Source\PSoC4/Counter_1.c **** *******************************************************************************/
 357:.\Generated_Source\PSoC4/Counter_1.c **** uint16 Counter_1_ReadCounter(void) 
 358:.\Generated_Source\PSoC4/Counter_1.c **** {
 312              		.loc 1 358 0
 313              		.cfi_startproc
 314 0000 80B5     		push	{r7, lr}
 315              	.LCFI17:
 316              		.cfi_def_cfa_offset 8
 317              		.cfi_offset 7, -8
 318              		.cfi_offset 14, -4
 319 0002 00AF     		add	r7, sp, #0
 320              	.LCFI18:
 321              		.cfi_def_cfa_register 7
 359:.\Generated_Source\PSoC4/Counter_1.c ****     /* Force capture by reading Accumulator */
 360:.\Generated_Source\PSoC4/Counter_1.c ****     /* Must first do a software capture to be able to read the counter */
 361:.\Generated_Source\PSoC4/Counter_1.c ****     /* It is up to the user code to make sure there isn't already captured data in the FIFO */
 362:.\Generated_Source\PSoC4/Counter_1.c ****     #if(Counter_1_UsingFixedFunction)
 363:.\Generated_Source\PSoC4/Counter_1.c **** 		(void)CY_GET_REG16(Counter_1_COUNTER_LSB_PTR);
ARM GAS  F:\UTILIS~1\demasson\AppData\Local\Temp\ccPrsKkU.s 			page 13


 364:.\Generated_Source\PSoC4/Counter_1.c **** 	#else
 365:.\Generated_Source\PSoC4/Counter_1.c **** 		(void)CY_GET_REG8(Counter_1_COUNTER_LSB_PTR_8BIT);
 322              		.loc 1 365 0
 323 0004 034B     		ldr	r3, .L22
 324 0006 1B78     		ldrb	r3, [r3]
 366:.\Generated_Source\PSoC4/Counter_1.c **** 	#endif/* (Counter_1_UsingFixedFunction) */
 367:.\Generated_Source\PSoC4/Counter_1.c ****     
 368:.\Generated_Source\PSoC4/Counter_1.c ****     /* Read the data from the FIFO (or capture register for Fixed Function)*/
 369:.\Generated_Source\PSoC4/Counter_1.c ****     #if(Counter_1_UsingFixedFunction)
 370:.\Generated_Source\PSoC4/Counter_1.c ****         return ((uint16)CY_GET_REG16(Counter_1_STATICCOUNT_LSB_PTR));
 371:.\Generated_Source\PSoC4/Counter_1.c ****     #else
 372:.\Generated_Source\PSoC4/Counter_1.c ****         return (CY_GET_REG16(Counter_1_STATICCOUNT_LSB_PTR));
 325              		.loc 1 372 0
 326 0008 034B     		ldr	r3, .L22+4
 327 000a 1B88     		ldrh	r3, [r3]
 328 000c 9BB2     		uxth	r3, r3
 373:.\Generated_Source\PSoC4/Counter_1.c ****     #endif /* (Counter_1_UsingFixedFunction) */
 374:.\Generated_Source\PSoC4/Counter_1.c **** }
 329              		.loc 1 374 0
 330 000e 181C     		mov	r0, r3
 331 0010 BD46     		mov	sp, r7
 332              		@ sp needed for prologue
 333 0012 80BD     		pop	{r7, pc}
 334              	.L23:
 335              		.align	2
 336              	.L22:
 337 0014 00000F40 		.word	1074724864
 338 0018 80100F40 		.word	1074729088
 339              		.cfi_endproc
 340              	.LFE7:
 341              		.size	Counter_1_ReadCounter, .-Counter_1_ReadCounter
 342              		.section	.text.Counter_1_ReadCapture,"ax",%progbits
 343              		.align	2
 344              		.global	Counter_1_ReadCapture
 345              		.code	16
 346              		.thumb_func
 347              		.type	Counter_1_ReadCapture, %function
 348              	Counter_1_ReadCapture:
 349              	.LFB8:
 375:.\Generated_Source\PSoC4/Counter_1.c **** 
 376:.\Generated_Source\PSoC4/Counter_1.c **** 
 377:.\Generated_Source\PSoC4/Counter_1.c **** /*******************************************************************************
 378:.\Generated_Source\PSoC4/Counter_1.c **** * Function Name: Counter_1_ReadCapture
 379:.\Generated_Source\PSoC4/Counter_1.c **** ********************************************************************************
 380:.\Generated_Source\PSoC4/Counter_1.c **** * Summary:
 381:.\Generated_Source\PSoC4/Counter_1.c **** *   This function returns the last value captured.
 382:.\Generated_Source\PSoC4/Counter_1.c **** *
 383:.\Generated_Source\PSoC4/Counter_1.c **** * Parameters:  
 384:.\Generated_Source\PSoC4/Counter_1.c **** *  void
 385:.\Generated_Source\PSoC4/Counter_1.c **** *
 386:.\Generated_Source\PSoC4/Counter_1.c **** * Return: 
 387:.\Generated_Source\PSoC4/Counter_1.c **** *  (uint16) Present Capture value.
 388:.\Generated_Source\PSoC4/Counter_1.c **** *
 389:.\Generated_Source\PSoC4/Counter_1.c **** *******************************************************************************/
 390:.\Generated_Source\PSoC4/Counter_1.c **** uint16 Counter_1_ReadCapture(void) 
 391:.\Generated_Source\PSoC4/Counter_1.c **** {
 350              		.loc 1 391 0
ARM GAS  F:\UTILIS~1\demasson\AppData\Local\Temp\ccPrsKkU.s 			page 14


 351              		.cfi_startproc
 352 0000 80B5     		push	{r7, lr}
 353              	.LCFI19:
 354              		.cfi_def_cfa_offset 8
 355              		.cfi_offset 7, -8
 356              		.cfi_offset 14, -4
 357 0002 00AF     		add	r7, sp, #0
 358              	.LCFI20:
 359              		.cfi_def_cfa_register 7
 392:.\Generated_Source\PSoC4/Counter_1.c ****     #if(Counter_1_UsingFixedFunction)
 393:.\Generated_Source\PSoC4/Counter_1.c ****         return ((uint16)CY_GET_REG16(Counter_1_STATICCOUNT_LSB_PTR));
 394:.\Generated_Source\PSoC4/Counter_1.c ****     #else
 395:.\Generated_Source\PSoC4/Counter_1.c ****         return (CY_GET_REG16(Counter_1_STATICCOUNT_LSB_PTR));
 360              		.loc 1 395 0
 361 0004 024B     		ldr	r3, .L26
 362 0006 1B88     		ldrh	r3, [r3]
 363 0008 9BB2     		uxth	r3, r3
 396:.\Generated_Source\PSoC4/Counter_1.c ****     #endif /* (Counter_1_UsingFixedFunction) */
 397:.\Generated_Source\PSoC4/Counter_1.c **** }
 364              		.loc 1 397 0
 365 000a 181C     		mov	r0, r3
 366 000c BD46     		mov	sp, r7
 367              		@ sp needed for prologue
 368 000e 80BD     		pop	{r7, pc}
 369              	.L27:
 370              		.align	2
 371              	.L26:
 372 0010 80100F40 		.word	1074729088
 373              		.cfi_endproc
 374              	.LFE8:
 375              		.size	Counter_1_ReadCapture, .-Counter_1_ReadCapture
 376              		.section	.text.Counter_1_WritePeriod,"ax",%progbits
 377              		.align	2
 378              		.global	Counter_1_WritePeriod
 379              		.code	16
 380              		.thumb_func
 381              		.type	Counter_1_WritePeriod, %function
 382              	Counter_1_WritePeriod:
 383              	.LFB9:
 398:.\Generated_Source\PSoC4/Counter_1.c **** 
 399:.\Generated_Source\PSoC4/Counter_1.c **** 
 400:.\Generated_Source\PSoC4/Counter_1.c **** /*******************************************************************************
 401:.\Generated_Source\PSoC4/Counter_1.c **** * Function Name: Counter_1_WritePeriod
 402:.\Generated_Source\PSoC4/Counter_1.c **** ********************************************************************************
 403:.\Generated_Source\PSoC4/Counter_1.c **** * Summary:
 404:.\Generated_Source\PSoC4/Counter_1.c **** * Changes the period of the counter.  The new period 
 405:.\Generated_Source\PSoC4/Counter_1.c **** * will be loaded the next time terminal count is detected.
 406:.\Generated_Source\PSoC4/Counter_1.c **** *
 407:.\Generated_Source\PSoC4/Counter_1.c **** * Parameters:  
 408:.\Generated_Source\PSoC4/Counter_1.c **** *  period: (uint16) A value of 0 will result in
 409:.\Generated_Source\PSoC4/Counter_1.c **** *         the counter remaining at zero.  
 410:.\Generated_Source\PSoC4/Counter_1.c **** *
 411:.\Generated_Source\PSoC4/Counter_1.c **** * Return: 
 412:.\Generated_Source\PSoC4/Counter_1.c **** *  void
 413:.\Generated_Source\PSoC4/Counter_1.c **** *
 414:.\Generated_Source\PSoC4/Counter_1.c **** *******************************************************************************/
 415:.\Generated_Source\PSoC4/Counter_1.c **** void Counter_1_WritePeriod(uint16 period) 
ARM GAS  F:\UTILIS~1\demasson\AppData\Local\Temp\ccPrsKkU.s 			page 15


 416:.\Generated_Source\PSoC4/Counter_1.c **** {
 384              		.loc 1 416 0
 385              		.cfi_startproc
 386 0000 80B5     		push	{r7, lr}
 387              	.LCFI21:
 388              		.cfi_def_cfa_offset 8
 389              		.cfi_offset 7, -8
 390              		.cfi_offset 14, -4
 391 0002 82B0     		sub	sp, sp, #8
 392              	.LCFI22:
 393              		.cfi_def_cfa_offset 16
 394 0004 00AF     		add	r7, sp, #0
 395              	.LCFI23:
 396              		.cfi_def_cfa_register 7
 397 0006 021C     		mov	r2, r0
 398 0008 BB1D     		add	r3, r7, #6
 399 000a 1A80     		strh	r2, [r3]
 417:.\Generated_Source\PSoC4/Counter_1.c ****     #if(Counter_1_UsingFixedFunction)
 418:.\Generated_Source\PSoC4/Counter_1.c ****         CY_SET_REG16(Counter_1_PERIOD_LSB_PTR,(uint16)period);
 419:.\Generated_Source\PSoC4/Counter_1.c ****     #else
 420:.\Generated_Source\PSoC4/Counter_1.c ****         CY_SET_REG16(Counter_1_PERIOD_LSB_PTR, period);
 400              		.loc 1 420 0
 401 000c 034B     		ldr	r3, .L29
 402 000e BA1D     		add	r2, r7, #6
 403 0010 1288     		ldrh	r2, [r2]
 404 0012 1A80     		strh	r2, [r3]
 421:.\Generated_Source\PSoC4/Counter_1.c ****     #endif /* (Counter_1_UsingFixedFunction) */
 422:.\Generated_Source\PSoC4/Counter_1.c **** }
 405              		.loc 1 422 0
 406 0014 BD46     		mov	sp, r7
 407 0016 02B0     		add	sp, sp, #8
 408              		@ sp needed for prologue
 409 0018 80BD     		pop	{r7, pc}
 410              	.L30:
 411 001a C046     		.align	2
 412              	.L29:
 413 001c 40100F40 		.word	1074729024
 414              		.cfi_endproc
 415              	.LFE9:
 416              		.size	Counter_1_WritePeriod, .-Counter_1_WritePeriod
 417              		.section	.text.Counter_1_ReadPeriod,"ax",%progbits
 418              		.align	2
 419              		.global	Counter_1_ReadPeriod
 420              		.code	16
 421              		.thumb_func
 422              		.type	Counter_1_ReadPeriod, %function
 423              	Counter_1_ReadPeriod:
 424              	.LFB10:
 423:.\Generated_Source\PSoC4/Counter_1.c **** 
 424:.\Generated_Source\PSoC4/Counter_1.c **** 
 425:.\Generated_Source\PSoC4/Counter_1.c **** /*******************************************************************************
 426:.\Generated_Source\PSoC4/Counter_1.c **** * Function Name: Counter_1_ReadPeriod
 427:.\Generated_Source\PSoC4/Counter_1.c **** ********************************************************************************
 428:.\Generated_Source\PSoC4/Counter_1.c **** * Summary:
 429:.\Generated_Source\PSoC4/Counter_1.c **** * Reads the current period value without affecting counter operation.
 430:.\Generated_Source\PSoC4/Counter_1.c **** *
 431:.\Generated_Source\PSoC4/Counter_1.c **** * Parameters:  
ARM GAS  F:\UTILIS~1\demasson\AppData\Local\Temp\ccPrsKkU.s 			page 16


 432:.\Generated_Source\PSoC4/Counter_1.c **** *  void:  
 433:.\Generated_Source\PSoC4/Counter_1.c **** *
 434:.\Generated_Source\PSoC4/Counter_1.c **** * Return: 
 435:.\Generated_Source\PSoC4/Counter_1.c **** *  (uint16) Present period value.
 436:.\Generated_Source\PSoC4/Counter_1.c **** *
 437:.\Generated_Source\PSoC4/Counter_1.c **** *******************************************************************************/
 438:.\Generated_Source\PSoC4/Counter_1.c **** uint16 Counter_1_ReadPeriod(void) 
 439:.\Generated_Source\PSoC4/Counter_1.c **** {
 425              		.loc 1 439 0
 426              		.cfi_startproc
 427 0000 80B5     		push	{r7, lr}
 428              	.LCFI24:
 429              		.cfi_def_cfa_offset 8
 430              		.cfi_offset 7, -8
 431              		.cfi_offset 14, -4
 432 0002 00AF     		add	r7, sp, #0
 433              	.LCFI25:
 434              		.cfi_def_cfa_register 7
 440:.\Generated_Source\PSoC4/Counter_1.c ****     #if(Counter_1_UsingFixedFunction)
 441:.\Generated_Source\PSoC4/Counter_1.c ****         return ((uint16)CY_GET_REG16(Counter_1_PERIOD_LSB_PTR));
 442:.\Generated_Source\PSoC4/Counter_1.c ****     #else
 443:.\Generated_Source\PSoC4/Counter_1.c ****         return (CY_GET_REG16(Counter_1_PERIOD_LSB_PTR));
 435              		.loc 1 443 0
 436 0004 024B     		ldr	r3, .L33
 437 0006 1B88     		ldrh	r3, [r3]
 438 0008 9BB2     		uxth	r3, r3
 444:.\Generated_Source\PSoC4/Counter_1.c ****     #endif /* (Counter_1_UsingFixedFunction) */
 445:.\Generated_Source\PSoC4/Counter_1.c **** }
 439              		.loc 1 445 0
 440 000a 181C     		mov	r0, r3
 441 000c BD46     		mov	sp, r7
 442              		@ sp needed for prologue
 443 000e 80BD     		pop	{r7, pc}
 444              	.L34:
 445              		.align	2
 446              	.L33:
 447 0010 40100F40 		.word	1074729024
 448              		.cfi_endproc
 449              	.LFE10:
 450              		.size	Counter_1_ReadPeriod, .-Counter_1_ReadPeriod
 451              		.section	.text.Counter_1_WriteCompare,"ax",%progbits
 452              		.align	2
 453              		.global	Counter_1_WriteCompare
 454              		.code	16
 455              		.thumb_func
 456              		.type	Counter_1_WriteCompare, %function
 457              	Counter_1_WriteCompare:
 458              	.LFB11:
 446:.\Generated_Source\PSoC4/Counter_1.c **** 
 447:.\Generated_Source\PSoC4/Counter_1.c **** 
 448:.\Generated_Source\PSoC4/Counter_1.c **** #if (!Counter_1_UsingFixedFunction)
 449:.\Generated_Source\PSoC4/Counter_1.c **** /*******************************************************************************
 450:.\Generated_Source\PSoC4/Counter_1.c **** * Function Name: Counter_1_WriteCompare
 451:.\Generated_Source\PSoC4/Counter_1.c **** ********************************************************************************
 452:.\Generated_Source\PSoC4/Counter_1.c **** * Summary:
 453:.\Generated_Source\PSoC4/Counter_1.c **** * Changes the compare value.  The compare output will 
 454:.\Generated_Source\PSoC4/Counter_1.c **** * reflect the new value on the next UDB clock.  The compare output will be 
ARM GAS  F:\UTILIS~1\demasson\AppData\Local\Temp\ccPrsKkU.s 			page 17


 455:.\Generated_Source\PSoC4/Counter_1.c **** * driven high when the present counter value compares true based on the 
 456:.\Generated_Source\PSoC4/Counter_1.c **** * configured compare mode setting. 
 457:.\Generated_Source\PSoC4/Counter_1.c **** *
 458:.\Generated_Source\PSoC4/Counter_1.c **** * Parameters:  
 459:.\Generated_Source\PSoC4/Counter_1.c **** *  Compare:  New compare value. 
 460:.\Generated_Source\PSoC4/Counter_1.c **** *
 461:.\Generated_Source\PSoC4/Counter_1.c **** * Return: 
 462:.\Generated_Source\PSoC4/Counter_1.c **** *  void
 463:.\Generated_Source\PSoC4/Counter_1.c **** *
 464:.\Generated_Source\PSoC4/Counter_1.c **** *******************************************************************************/
 465:.\Generated_Source\PSoC4/Counter_1.c **** void Counter_1_WriteCompare(uint16 compare) \
 466:.\Generated_Source\PSoC4/Counter_1.c ****                                    
 467:.\Generated_Source\PSoC4/Counter_1.c **** {
 459              		.loc 1 467 0
 460              		.cfi_startproc
 461 0000 80B5     		push	{r7, lr}
 462              	.LCFI26:
 463              		.cfi_def_cfa_offset 8
 464              		.cfi_offset 7, -8
 465              		.cfi_offset 14, -4
 466 0002 82B0     		sub	sp, sp, #8
 467              	.LCFI27:
 468              		.cfi_def_cfa_offset 16
 469 0004 00AF     		add	r7, sp, #0
 470              	.LCFI28:
 471              		.cfi_def_cfa_register 7
 472 0006 021C     		mov	r2, r0
 473 0008 BB1D     		add	r3, r7, #6
 474 000a 1A80     		strh	r2, [r3]
 468:.\Generated_Source\PSoC4/Counter_1.c ****     #if(Counter_1_UsingFixedFunction)
 469:.\Generated_Source\PSoC4/Counter_1.c ****         CY_SET_REG16(Counter_1_COMPARE_LSB_PTR, (uint16)compare);
 470:.\Generated_Source\PSoC4/Counter_1.c ****     #else
 471:.\Generated_Source\PSoC4/Counter_1.c ****         CY_SET_REG16(Counter_1_COMPARE_LSB_PTR, compare);
 475              		.loc 1 471 0
 476 000c 034B     		ldr	r3, .L36
 477 000e BA1D     		add	r2, r7, #6
 478 0010 1288     		ldrh	r2, [r2]
 479 0012 1A80     		strh	r2, [r3]
 472:.\Generated_Source\PSoC4/Counter_1.c ****     #endif /* (Counter_1_UsingFixedFunction) */
 473:.\Generated_Source\PSoC4/Counter_1.c **** }
 480              		.loc 1 473 0
 481 0014 BD46     		mov	sp, r7
 482 0016 02B0     		add	sp, sp, #8
 483              		@ sp needed for prologue
 484 0018 80BD     		pop	{r7, pc}
 485              	.L37:
 486 001a C046     		.align	2
 487              	.L36:
 488 001c 60100F40 		.word	1074729056
 489              		.cfi_endproc
 490              	.LFE11:
 491              		.size	Counter_1_WriteCompare, .-Counter_1_WriteCompare
 492              		.section	.text.Counter_1_ReadCompare,"ax",%progbits
 493              		.align	2
 494              		.global	Counter_1_ReadCompare
 495              		.code	16
 496              		.thumb_func
ARM GAS  F:\UTILIS~1\demasson\AppData\Local\Temp\ccPrsKkU.s 			page 18


 497              		.type	Counter_1_ReadCompare, %function
 498              	Counter_1_ReadCompare:
 499              	.LFB12:
 474:.\Generated_Source\PSoC4/Counter_1.c **** 
 475:.\Generated_Source\PSoC4/Counter_1.c **** 
 476:.\Generated_Source\PSoC4/Counter_1.c **** /*******************************************************************************
 477:.\Generated_Source\PSoC4/Counter_1.c **** * Function Name: Counter_1_ReadCompare
 478:.\Generated_Source\PSoC4/Counter_1.c **** ********************************************************************************
 479:.\Generated_Source\PSoC4/Counter_1.c **** * Summary:
 480:.\Generated_Source\PSoC4/Counter_1.c **** * Returns the compare value.
 481:.\Generated_Source\PSoC4/Counter_1.c **** *
 482:.\Generated_Source\PSoC4/Counter_1.c **** * Parameters:  
 483:.\Generated_Source\PSoC4/Counter_1.c **** *  void:
 484:.\Generated_Source\PSoC4/Counter_1.c **** *
 485:.\Generated_Source\PSoC4/Counter_1.c **** * Return: 
 486:.\Generated_Source\PSoC4/Counter_1.c **** *  (uint16) Present compare value.
 487:.\Generated_Source\PSoC4/Counter_1.c **** *
 488:.\Generated_Source\PSoC4/Counter_1.c **** *******************************************************************************/
 489:.\Generated_Source\PSoC4/Counter_1.c **** uint16 Counter_1_ReadCompare(void) 
 490:.\Generated_Source\PSoC4/Counter_1.c **** {
 500              		.loc 1 490 0
 501              		.cfi_startproc
 502 0000 80B5     		push	{r7, lr}
 503              	.LCFI29:
 504              		.cfi_def_cfa_offset 8
 505              		.cfi_offset 7, -8
 506              		.cfi_offset 14, -4
 507 0002 00AF     		add	r7, sp, #0
 508              	.LCFI30:
 509              		.cfi_def_cfa_register 7
 491:.\Generated_Source\PSoC4/Counter_1.c ****     return (CY_GET_REG16(Counter_1_COMPARE_LSB_PTR));
 510              		.loc 1 491 0
 511 0004 024B     		ldr	r3, .L40
 512 0006 1B88     		ldrh	r3, [r3]
 513 0008 9BB2     		uxth	r3, r3
 492:.\Generated_Source\PSoC4/Counter_1.c **** }
 514              		.loc 1 492 0
 515 000a 181C     		mov	r0, r3
 516 000c BD46     		mov	sp, r7
 517              		@ sp needed for prologue
 518 000e 80BD     		pop	{r7, pc}
 519              	.L41:
 520              		.align	2
 521              	.L40:
 522 0010 60100F40 		.word	1074729056
 523              		.cfi_endproc
 524              	.LFE12:
 525              		.size	Counter_1_ReadCompare, .-Counter_1_ReadCompare
 526              		.section	.text.Counter_1_ClearFIFO,"ax",%progbits
 527              		.align	2
 528              		.global	Counter_1_ClearFIFO
 529              		.code	16
 530              		.thumb_func
 531              		.type	Counter_1_ClearFIFO, %function
 532              	Counter_1_ClearFIFO:
 533              	.LFB13:
 493:.\Generated_Source\PSoC4/Counter_1.c **** 
ARM GAS  F:\UTILIS~1\demasson\AppData\Local\Temp\ccPrsKkU.s 			page 19


 494:.\Generated_Source\PSoC4/Counter_1.c **** 
 495:.\Generated_Source\PSoC4/Counter_1.c **** #if (Counter_1_COMPARE_MODE_SOFTWARE)
 496:.\Generated_Source\PSoC4/Counter_1.c **** /*******************************************************************************
 497:.\Generated_Source\PSoC4/Counter_1.c **** * Function Name: Counter_1_SetCompareMode
 498:.\Generated_Source\PSoC4/Counter_1.c **** ********************************************************************************
 499:.\Generated_Source\PSoC4/Counter_1.c **** * Summary:
 500:.\Generated_Source\PSoC4/Counter_1.c **** *  Sets the software controlled Compare Mode.
 501:.\Generated_Source\PSoC4/Counter_1.c **** *
 502:.\Generated_Source\PSoC4/Counter_1.c **** * Parameters:
 503:.\Generated_Source\PSoC4/Counter_1.c **** *  compareMode:  Compare Mode Enumerated Type.
 504:.\Generated_Source\PSoC4/Counter_1.c **** *
 505:.\Generated_Source\PSoC4/Counter_1.c **** * Return:
 506:.\Generated_Source\PSoC4/Counter_1.c **** *  void
 507:.\Generated_Source\PSoC4/Counter_1.c **** *
 508:.\Generated_Source\PSoC4/Counter_1.c **** *******************************************************************************/
 509:.\Generated_Source\PSoC4/Counter_1.c **** void Counter_1_SetCompareMode(uint8 compareMode) 
 510:.\Generated_Source\PSoC4/Counter_1.c **** {
 511:.\Generated_Source\PSoC4/Counter_1.c ****     /* Clear the compare mode bits in the control register */
 512:.\Generated_Source\PSoC4/Counter_1.c ****     Counter_1_CONTROL &= ((uint8)(~Counter_1_CTRL_CMPMODE_MASK));
 513:.\Generated_Source\PSoC4/Counter_1.c ****     
 514:.\Generated_Source\PSoC4/Counter_1.c ****     /* Write the new setting */
 515:.\Generated_Source\PSoC4/Counter_1.c ****     Counter_1_CONTROL |= compareMode;
 516:.\Generated_Source\PSoC4/Counter_1.c **** }
 517:.\Generated_Source\PSoC4/Counter_1.c **** #endif  /* (Counter_1_COMPARE_MODE_SOFTWARE) */
 518:.\Generated_Source\PSoC4/Counter_1.c **** 
 519:.\Generated_Source\PSoC4/Counter_1.c **** 
 520:.\Generated_Source\PSoC4/Counter_1.c **** #if (Counter_1_CAPTURE_MODE_SOFTWARE)
 521:.\Generated_Source\PSoC4/Counter_1.c **** /*******************************************************************************
 522:.\Generated_Source\PSoC4/Counter_1.c **** * Function Name: Counter_1_SetCaptureMode
 523:.\Generated_Source\PSoC4/Counter_1.c **** ********************************************************************************
 524:.\Generated_Source\PSoC4/Counter_1.c **** * Summary:
 525:.\Generated_Source\PSoC4/Counter_1.c **** *  Sets the software controlled Capture Mode.
 526:.\Generated_Source\PSoC4/Counter_1.c **** *
 527:.\Generated_Source\PSoC4/Counter_1.c **** * Parameters:
 528:.\Generated_Source\PSoC4/Counter_1.c **** *  captureMode:  Capture Mode Enumerated Type.
 529:.\Generated_Source\PSoC4/Counter_1.c **** *
 530:.\Generated_Source\PSoC4/Counter_1.c **** * Return:
 531:.\Generated_Source\PSoC4/Counter_1.c **** *  void
 532:.\Generated_Source\PSoC4/Counter_1.c **** *
 533:.\Generated_Source\PSoC4/Counter_1.c **** *******************************************************************************/
 534:.\Generated_Source\PSoC4/Counter_1.c **** void Counter_1_SetCaptureMode(uint8 captureMode) 
 535:.\Generated_Source\PSoC4/Counter_1.c **** {
 536:.\Generated_Source\PSoC4/Counter_1.c ****     /* Clear the capture mode bits in the control register */
 537:.\Generated_Source\PSoC4/Counter_1.c ****     Counter_1_CONTROL &= ((uint8)(~Counter_1_CTRL_CAPMODE_MASK));
 538:.\Generated_Source\PSoC4/Counter_1.c ****     
 539:.\Generated_Source\PSoC4/Counter_1.c ****     /* Write the new setting */
 540:.\Generated_Source\PSoC4/Counter_1.c ****     Counter_1_CONTROL |= ((uint8)((uint8)captureMode << Counter_1_CTRL_CAPMODE0_SHIFT));
 541:.\Generated_Source\PSoC4/Counter_1.c **** }
 542:.\Generated_Source\PSoC4/Counter_1.c **** #endif  /* (Counter_1_CAPTURE_MODE_SOFTWARE) */
 543:.\Generated_Source\PSoC4/Counter_1.c **** 
 544:.\Generated_Source\PSoC4/Counter_1.c **** 
 545:.\Generated_Source\PSoC4/Counter_1.c **** /*******************************************************************************
 546:.\Generated_Source\PSoC4/Counter_1.c **** * Function Name: Counter_1_ClearFIFO
 547:.\Generated_Source\PSoC4/Counter_1.c **** ********************************************************************************
 548:.\Generated_Source\PSoC4/Counter_1.c **** * Summary:
 549:.\Generated_Source\PSoC4/Counter_1.c **** *   This function clears all capture data from the capture FIFO
 550:.\Generated_Source\PSoC4/Counter_1.c **** *
ARM GAS  F:\UTILIS~1\demasson\AppData\Local\Temp\ccPrsKkU.s 			page 20


 551:.\Generated_Source\PSoC4/Counter_1.c **** * Parameters:  
 552:.\Generated_Source\PSoC4/Counter_1.c **** *  void:
 553:.\Generated_Source\PSoC4/Counter_1.c **** *
 554:.\Generated_Source\PSoC4/Counter_1.c **** * Return: 
 555:.\Generated_Source\PSoC4/Counter_1.c **** *  None
 556:.\Generated_Source\PSoC4/Counter_1.c **** *
 557:.\Generated_Source\PSoC4/Counter_1.c **** *******************************************************************************/
 558:.\Generated_Source\PSoC4/Counter_1.c **** void Counter_1_ClearFIFO(void) 
 559:.\Generated_Source\PSoC4/Counter_1.c **** {
 534              		.loc 1 559 0
 535              		.cfi_startproc
 536 0000 80B5     		push	{r7, lr}
 537              	.LCFI31:
 538              		.cfi_def_cfa_offset 8
 539              		.cfi_offset 7, -8
 540              		.cfi_offset 14, -4
 541 0002 00AF     		add	r7, sp, #0
 542              	.LCFI32:
 543              		.cfi_def_cfa_register 7
 560:.\Generated_Source\PSoC4/Counter_1.c **** 
 561:.\Generated_Source\PSoC4/Counter_1.c ****     while(0u != (Counter_1_ReadStatusRegister() & Counter_1_STATUS_FIFONEMP))
 544              		.loc 1 561 0
 545 0004 01E0     		b	.L43
 546              	.L44:
 562:.\Generated_Source\PSoC4/Counter_1.c ****     {
 563:.\Generated_Source\PSoC4/Counter_1.c ****         (void)Counter_1_ReadCapture();
 547              		.loc 1 563 0
 548 0006 FFF7FEFF 		bl	Counter_1_ReadCapture
 549              	.L43:
 561:.\Generated_Source\PSoC4/Counter_1.c ****     while(0u != (Counter_1_ReadStatusRegister() & Counter_1_STATUS_FIFONEMP))
 550              		.loc 1 561 0 discriminator 1
 551 000a FFF7FEFF 		bl	Counter_1_ReadStatusRegister
 552 000e 031C     		mov	r3, r0
 553 0010 1A1C     		mov	r2, r3
 554 0012 4023     		mov	r3, #64
 555 0014 1340     		and	r3, r2
 556 0016 F6D1     		bne	.L44
 564:.\Generated_Source\PSoC4/Counter_1.c ****     }
 565:.\Generated_Source\PSoC4/Counter_1.c **** 
 566:.\Generated_Source\PSoC4/Counter_1.c **** }
 557              		.loc 1 566 0
 558 0018 BD46     		mov	sp, r7
 559              		@ sp needed for prologue
 560 001a 80BD     		pop	{r7, pc}
 561              		.cfi_endproc
 562              	.LFE13:
 563              		.size	Counter_1_ClearFIFO, .-Counter_1_ClearFIFO
 564              		.text
 565              	.Letext0:
 566              		.file 2 ".\\Generated_Source\\PSoC4\\cytypes.h"