ARM GAS  F:\UTILIS~1\demasson\AppData\Local\Temp\cctFxQuy.s 			page 1


   1              		.cpu cortex-m0
   2              		.fpu softvfp
   3              		.eabi_attribute 20, 1
   4              		.eabi_attribute 21, 1
   5              		.eabi_attribute 23, 3
   6              		.eabi_attribute 24, 1
   7              		.eabi_attribute 25, 1
   8              		.eabi_attribute 26, 1
   9              		.eabi_attribute 30, 6
  10              		.eabi_attribute 34, 0
  11              		.eabi_attribute 18, 4
  12              		.code	16
  13              		.file	"cyfitter_cfg.c"
  14              		.text
  15              	.Ltext0:
  16              		.cfi_sections	.debug_frame
  17              		.section	.text.CYMEMZERO,"ax",%progbits
  18              		.align	2
  19              		.code	16
  20              		.thumb_func
  21              		.type	CYMEMZERO, %function
  22              	CYMEMZERO:
  23              	.LFB0:
  24              		.file 1 ".\\Generated_Source\\PSoC4\\cyfitter_cfg.c"
   1:.\Generated_Source\PSoC4/cyfitter_cfg.c **** /*******************************************************************************
   2:.\Generated_Source\PSoC4/cyfitter_cfg.c **** * FILENAME: cyfitter_cfg.c
   3:.\Generated_Source\PSoC4/cyfitter_cfg.c **** * PSoC Creator 3.0 SP2
   4:.\Generated_Source\PSoC4/cyfitter_cfg.c **** *
   5:.\Generated_Source\PSoC4/cyfitter_cfg.c **** * Description:
   6:.\Generated_Source\PSoC4/cyfitter_cfg.c **** * This file is automatically generated by PSoC Creator with device 
   7:.\Generated_Source\PSoC4/cyfitter_cfg.c **** * initialization code.  Except for the user defined sections in
   8:.\Generated_Source\PSoC4/cyfitter_cfg.c **** * CyClockStartupError(), this file should not be modified.
   9:.\Generated_Source\PSoC4/cyfitter_cfg.c **** *
  10:.\Generated_Source\PSoC4/cyfitter_cfg.c **** ********************************************************************************
  11:.\Generated_Source\PSoC4/cyfitter_cfg.c **** * Copyright 2013, Cypress Semiconductor Corporation.  All rights reserved.
  12:.\Generated_Source\PSoC4/cyfitter_cfg.c **** * You may use this file only in accordance with the license, terms, conditions, 
  13:.\Generated_Source\PSoC4/cyfitter_cfg.c **** * disclaimers, and limitations in the end user license agreement accompanying 
  14:.\Generated_Source\PSoC4/cyfitter_cfg.c **** * the software package with which this file was provided.
  15:.\Generated_Source\PSoC4/cyfitter_cfg.c **** ********************************************************************************/
  16:.\Generated_Source\PSoC4/cyfitter_cfg.c **** 
  17:.\Generated_Source\PSoC4/cyfitter_cfg.c **** #include <string.h>
  18:.\Generated_Source\PSoC4/cyfitter_cfg.c **** #include <cytypes.h>
  19:.\Generated_Source\PSoC4/cyfitter_cfg.c **** #include <cydevice_trm.h>
  20:.\Generated_Source\PSoC4/cyfitter_cfg.c **** #include <cyfitter.h>
  21:.\Generated_Source\PSoC4/cyfitter_cfg.c **** #include <CyLib.h>
  22:.\Generated_Source\PSoC4/cyfitter_cfg.c **** #include <cyfitter_cfg.h>
  23:.\Generated_Source\PSoC4/cyfitter_cfg.c **** 
  24:.\Generated_Source\PSoC4/cyfitter_cfg.c **** 
  25:.\Generated_Source\PSoC4/cyfitter_cfg.c **** #if defined(__GNUC__) || defined(__ARMCC_VERSION)
  26:.\Generated_Source\PSoC4/cyfitter_cfg.c ****     #define CYPACKED 
  27:.\Generated_Source\PSoC4/cyfitter_cfg.c ****     #define CYPACKED_ATTR __attribute__ ((packed))
  28:.\Generated_Source\PSoC4/cyfitter_cfg.c ****     #define CYALIGNED __attribute__ ((aligned))
  29:.\Generated_Source\PSoC4/cyfitter_cfg.c ****     #define CY_CFG_UNUSED __attribute__ ((unused))
  30:.\Generated_Source\PSoC4/cyfitter_cfg.c ****     #define CY_CFG_SECTION __attribute__ ((section(".psocinit")))
  31:.\Generated_Source\PSoC4/cyfitter_cfg.c ****     
  32:.\Generated_Source\PSoC4/cyfitter_cfg.c ****     #if defined(__ARMCC_VERSION)
  33:.\Generated_Source\PSoC4/cyfitter_cfg.c ****         #define CY_CFG_MEMORY_BARRIER() __memory_changed()
ARM GAS  F:\UTILIS~1\demasson\AppData\Local\Temp\cctFxQuy.s 			page 2


  34:.\Generated_Source\PSoC4/cyfitter_cfg.c ****     #else
  35:.\Generated_Source\PSoC4/cyfitter_cfg.c ****         #define CY_CFG_MEMORY_BARRIER() __sync_synchronize()
  36:.\Generated_Source\PSoC4/cyfitter_cfg.c ****     #endif
  37:.\Generated_Source\PSoC4/cyfitter_cfg.c ****     
  38:.\Generated_Source\PSoC4/cyfitter_cfg.c **** #elif defined(__ICCARM__)
  39:.\Generated_Source\PSoC4/cyfitter_cfg.c ****     #include <intrinsics.h>
  40:.\Generated_Source\PSoC4/cyfitter_cfg.c **** 
  41:.\Generated_Source\PSoC4/cyfitter_cfg.c ****     #define CYPACKED __packed
  42:.\Generated_Source\PSoC4/cyfitter_cfg.c ****     #define CYPACKED_ATTR 
  43:.\Generated_Source\PSoC4/cyfitter_cfg.c ****     #define CYALIGNED _Pragma("data_alignment=4")
  44:.\Generated_Source\PSoC4/cyfitter_cfg.c ****     #define CY_CFG_UNUSED _Pragma("diag_suppress=Pe177")
  45:.\Generated_Source\PSoC4/cyfitter_cfg.c ****     #define CY_CFG_SECTION _Pragma("location=\".psocinit\"")
  46:.\Generated_Source\PSoC4/cyfitter_cfg.c ****     
  47:.\Generated_Source\PSoC4/cyfitter_cfg.c ****     #define CY_CFG_MEMORY_BARRIER() __DMB()
  48:.\Generated_Source\PSoC4/cyfitter_cfg.c ****     
  49:.\Generated_Source\PSoC4/cyfitter_cfg.c **** #else
  50:.\Generated_Source\PSoC4/cyfitter_cfg.c ****     #error Unsupported toolchain
  51:.\Generated_Source\PSoC4/cyfitter_cfg.c **** #endif
  52:.\Generated_Source\PSoC4/cyfitter_cfg.c **** 
  53:.\Generated_Source\PSoC4/cyfitter_cfg.c **** 
  54:.\Generated_Source\PSoC4/cyfitter_cfg.c **** CY_CFG_UNUSED
  55:.\Generated_Source\PSoC4/cyfitter_cfg.c **** static void CYMEMZERO(void *s, size_t n);
  56:.\Generated_Source\PSoC4/cyfitter_cfg.c **** CY_CFG_UNUSED
  57:.\Generated_Source\PSoC4/cyfitter_cfg.c **** static void CYMEMZERO(void *s, size_t n)
  58:.\Generated_Source\PSoC4/cyfitter_cfg.c **** {
  25              		.loc 1 58 0
  26              		.cfi_startproc
  27 0000 80B5     		push	{r7, lr}
  28              	.LCFI0:
  29              		.cfi_def_cfa_offset 8
  30              		.cfi_offset 7, -8
  31              		.cfi_offset 14, -4
  32 0002 82B0     		sub	sp, sp, #8
  33              	.LCFI1:
  34              		.cfi_def_cfa_offset 16
  35 0004 00AF     		add	r7, sp, #0
  36              	.LCFI2:
  37              		.cfi_def_cfa_register 7
  38 0006 7860     		str	r0, [r7, #4]
  39 0008 3960     		str	r1, [r7]
  59:.\Generated_Source\PSoC4/cyfitter_cfg.c **** 	(void)memset(s, 0, n);
  40              		.loc 1 59 0
  41 000a 7A68     		ldr	r2, [r7, #4]
  42 000c 3B68     		ldr	r3, [r7]
  43 000e 101C     		mov	r0, r2
  44 0010 0021     		mov	r1, #0
  45 0012 1A1C     		mov	r2, r3
  46 0014 FFF7FEFF 		bl	memset
  60:.\Generated_Source\PSoC4/cyfitter_cfg.c **** }
  47              		.loc 1 60 0
  48 0018 BD46     		mov	sp, r7
  49 001a 02B0     		add	sp, sp, #8
  50              		@ sp needed for prologue
  51 001c 80BD     		pop	{r7, pc}
  52              		.cfi_endproc
  53              	.LFE0:
  54              		.size	CYMEMZERO, .-CYMEMZERO
ARM GAS  F:\UTILIS~1\demasson\AppData\Local\Temp\cctFxQuy.s 			page 3


  55 001e C046     		.section	.text.CYCONFIGCPY,"ax",%progbits
  56              		.align	2
  57              		.code	16
  58              		.thumb_func
  59              		.type	CYCONFIGCPY, %function
  60              	CYCONFIGCPY:
  61              	.LFB1:
  61:.\Generated_Source\PSoC4/cyfitter_cfg.c **** CY_CFG_UNUSED
  62:.\Generated_Source\PSoC4/cyfitter_cfg.c **** static void CYCONFIGCPY(void *dest, const void *src, size_t n);
  63:.\Generated_Source\PSoC4/cyfitter_cfg.c **** CY_CFG_UNUSED
  64:.\Generated_Source\PSoC4/cyfitter_cfg.c **** static void CYCONFIGCPY(void *dest, const void *src, size_t n)
  65:.\Generated_Source\PSoC4/cyfitter_cfg.c **** {
  62              		.loc 1 65 0
  63              		.cfi_startproc
  64 0000 80B5     		push	{r7, lr}
  65              	.LCFI3:
  66              		.cfi_def_cfa_offset 8
  67              		.cfi_offset 7, -8
  68              		.cfi_offset 14, -4
  69 0002 84B0     		sub	sp, sp, #16
  70              	.LCFI4:
  71              		.cfi_def_cfa_offset 24
  72 0004 00AF     		add	r7, sp, #0
  73              	.LCFI5:
  74              		.cfi_def_cfa_register 7
  75 0006 F860     		str	r0, [r7, #12]
  76 0008 B960     		str	r1, [r7, #8]
  77 000a 7A60     		str	r2, [r7, #4]
  66:.\Generated_Source\PSoC4/cyfitter_cfg.c **** 	(void)memcpy(dest, src, n);
  78              		.loc 1 66 0
  79 000c F968     		ldr	r1, [r7, #12]
  80 000e BA68     		ldr	r2, [r7, #8]
  81 0010 7B68     		ldr	r3, [r7, #4]
  82 0012 081C     		mov	r0, r1
  83 0014 111C     		mov	r1, r2
  84 0016 1A1C     		mov	r2, r3
  85 0018 FFF7FEFF 		bl	memcpy
  67:.\Generated_Source\PSoC4/cyfitter_cfg.c **** }
  86              		.loc 1 67 0
  87 001c BD46     		mov	sp, r7
  88 001e 04B0     		add	sp, sp, #16
  89              		@ sp needed for prologue
  90 0020 80BD     		pop	{r7, pc}
  91              		.cfi_endproc
  92              	.LFE1:
  93              		.size	CYCONFIGCPY, .-CYCONFIGCPY
  94 0022 C046     		.section	.text.CYCONFIGCPYCODE,"ax",%progbits
  95              		.align	2
  96              		.code	16
  97              		.thumb_func
  98              		.type	CYCONFIGCPYCODE, %function
  99              	CYCONFIGCPYCODE:
 100              	.LFB2:
  68:.\Generated_Source\PSoC4/cyfitter_cfg.c **** CY_CFG_UNUSED
  69:.\Generated_Source\PSoC4/cyfitter_cfg.c **** static void CYCONFIGCPYCODE(void *dest, const void *src, size_t n);
  70:.\Generated_Source\PSoC4/cyfitter_cfg.c **** CY_CFG_UNUSED
  71:.\Generated_Source\PSoC4/cyfitter_cfg.c **** static void CYCONFIGCPYCODE(void *dest, const void *src, size_t n)
ARM GAS  F:\UTILIS~1\demasson\AppData\Local\Temp\cctFxQuy.s 			page 4


  72:.\Generated_Source\PSoC4/cyfitter_cfg.c **** {
 101              		.loc 1 72 0
 102              		.cfi_startproc
 103 0000 80B5     		push	{r7, lr}
 104              	.LCFI6:
 105              		.cfi_def_cfa_offset 8
 106              		.cfi_offset 7, -8
 107              		.cfi_offset 14, -4
 108 0002 84B0     		sub	sp, sp, #16
 109              	.LCFI7:
 110              		.cfi_def_cfa_offset 24
 111 0004 00AF     		add	r7, sp, #0
 112              	.LCFI8:
 113              		.cfi_def_cfa_register 7
 114 0006 F860     		str	r0, [r7, #12]
 115 0008 B960     		str	r1, [r7, #8]
 116 000a 7A60     		str	r2, [r7, #4]
  73:.\Generated_Source\PSoC4/cyfitter_cfg.c **** 	(void)memcpy(dest, src, n);
 117              		.loc 1 73 0
 118 000c F968     		ldr	r1, [r7, #12]
 119 000e BA68     		ldr	r2, [r7, #8]
 120 0010 7B68     		ldr	r3, [r7, #4]
 121 0012 081C     		mov	r0, r1
 122 0014 111C     		mov	r1, r2
 123 0016 1A1C     		mov	r2, r3
 124 0018 FFF7FEFF 		bl	memcpy
  74:.\Generated_Source\PSoC4/cyfitter_cfg.c **** }
 125              		.loc 1 74 0
 126 001c BD46     		mov	sp, r7
 127 001e 04B0     		add	sp, sp, #16
 128              		@ sp needed for prologue
 129 0020 80BD     		pop	{r7, pc}
 130              		.cfi_endproc
 131              	.LFE2:
 132              		.size	CYCONFIGCPYCODE, .-CYCONFIGCPYCODE
 133 0022 C046     		.section	.text.cfg_write_bytes32,"ax",%progbits
 134              		.align	2
 135              		.code	16
 136              		.thumb_func
 137              		.type	cfg_write_bytes32, %function
 138              	cfg_write_bytes32:
 139              	.LFB3:
  75:.\Generated_Source\PSoC4/cyfitter_cfg.c **** 
  76:.\Generated_Source\PSoC4/cyfitter_cfg.c **** 
  77:.\Generated_Source\PSoC4/cyfitter_cfg.c **** 
  78:.\Generated_Source\PSoC4/cyfitter_cfg.c **** /* Clock startup error codes                                                   */
  79:.\Generated_Source\PSoC4/cyfitter_cfg.c **** #define CYCLOCKSTART_NO_ERROR    0u
  80:.\Generated_Source\PSoC4/cyfitter_cfg.c **** #define CYCLOCKSTART_XTAL_ERROR  1u
  81:.\Generated_Source\PSoC4/cyfitter_cfg.c **** #define CYCLOCKSTART_32KHZ_ERROR 2u
  82:.\Generated_Source\PSoC4/cyfitter_cfg.c **** #define CYCLOCKSTART_PLL_ERROR   3u
  83:.\Generated_Source\PSoC4/cyfitter_cfg.c **** 
  84:.\Generated_Source\PSoC4/cyfitter_cfg.c **** #ifdef CY_NEED_CYCLOCKSTARTUPERROR
  85:.\Generated_Source\PSoC4/cyfitter_cfg.c **** /*******************************************************************************
  86:.\Generated_Source\PSoC4/cyfitter_cfg.c **** * Function Name: CyClockStartupError
  87:.\Generated_Source\PSoC4/cyfitter_cfg.c **** ********************************************************************************
  88:.\Generated_Source\PSoC4/cyfitter_cfg.c **** * Summary:
  89:.\Generated_Source\PSoC4/cyfitter_cfg.c **** *  If an error is encountered during clock configuration (crystal startup error,
ARM GAS  F:\UTILIS~1\demasson\AppData\Local\Temp\cctFxQuy.s 			page 5


  90:.\Generated_Source\PSoC4/cyfitter_cfg.c **** *  PLL lock error, etc.), the system will end up here.  Unless reimplemented by
  91:.\Generated_Source\PSoC4/cyfitter_cfg.c **** *  the customer, this function will stop in an infinite loop.
  92:.\Generated_Source\PSoC4/cyfitter_cfg.c **** *
  93:.\Generated_Source\PSoC4/cyfitter_cfg.c **** * Parameters:
  94:.\Generated_Source\PSoC4/cyfitter_cfg.c **** *   void
  95:.\Generated_Source\PSoC4/cyfitter_cfg.c **** *
  96:.\Generated_Source\PSoC4/cyfitter_cfg.c **** * Return:
  97:.\Generated_Source\PSoC4/cyfitter_cfg.c **** *   void
  98:.\Generated_Source\PSoC4/cyfitter_cfg.c **** *
  99:.\Generated_Source\PSoC4/cyfitter_cfg.c **** *******************************************************************************/
 100:.\Generated_Source\PSoC4/cyfitter_cfg.c **** CY_CFG_UNUSED
 101:.\Generated_Source\PSoC4/cyfitter_cfg.c **** static void CyClockStartupError(uint8 errorCode);
 102:.\Generated_Source\PSoC4/cyfitter_cfg.c **** CY_CFG_UNUSED
 103:.\Generated_Source\PSoC4/cyfitter_cfg.c **** static void CyClockStartupError(uint8 errorCode)
 104:.\Generated_Source\PSoC4/cyfitter_cfg.c **** {
 105:.\Generated_Source\PSoC4/cyfitter_cfg.c ****     /* To remove the compiler warning if errorCode not used.                */
 106:.\Generated_Source\PSoC4/cyfitter_cfg.c ****     errorCode = errorCode;
 107:.\Generated_Source\PSoC4/cyfitter_cfg.c **** 
 108:.\Generated_Source\PSoC4/cyfitter_cfg.c ****     /* `#START CyClockStartupError` */
 109:.\Generated_Source\PSoC4/cyfitter_cfg.c **** 
 110:.\Generated_Source\PSoC4/cyfitter_cfg.c ****     /* If we have a clock startup error (bad MHz crystal, PLL lock, etc.),  */
 111:.\Generated_Source\PSoC4/cyfitter_cfg.c ****     /* we will end up here to allow the customer to implement something to  */
 112:.\Generated_Source\PSoC4/cyfitter_cfg.c ****     /* deal with the clock condition.                                       */
 113:.\Generated_Source\PSoC4/cyfitter_cfg.c **** 
 114:.\Generated_Source\PSoC4/cyfitter_cfg.c ****     /* `#END` */
 115:.\Generated_Source\PSoC4/cyfitter_cfg.c **** 
 116:.\Generated_Source\PSoC4/cyfitter_cfg.c ****     /* If nothing else, stop here since the clocks have not started         */
 117:.\Generated_Source\PSoC4/cyfitter_cfg.c ****     /* correctly.                                                           */
 118:.\Generated_Source\PSoC4/cyfitter_cfg.c ****     while(1) {}
 119:.\Generated_Source\PSoC4/cyfitter_cfg.c **** }
 120:.\Generated_Source\PSoC4/cyfitter_cfg.c **** #endif
 121:.\Generated_Source\PSoC4/cyfitter_cfg.c **** 
 122:.\Generated_Source\PSoC4/cyfitter_cfg.c **** #define CY_CFG_BASE_ADDR_COUNT 8u
 123:.\Generated_Source\PSoC4/cyfitter_cfg.c **** CYPACKED typedef struct
 124:.\Generated_Source\PSoC4/cyfitter_cfg.c **** {
 125:.\Generated_Source\PSoC4/cyfitter_cfg.c **** 	uint8 offset;
 126:.\Generated_Source\PSoC4/cyfitter_cfg.c **** 	uint8 value;
 127:.\Generated_Source\PSoC4/cyfitter_cfg.c **** } CYPACKED_ATTR cy_cfg_addrvalue_t;
 128:.\Generated_Source\PSoC4/cyfitter_cfg.c **** 
 129:.\Generated_Source\PSoC4/cyfitter_cfg.c **** 
 130:.\Generated_Source\PSoC4/cyfitter_cfg.c **** 
 131:.\Generated_Source\PSoC4/cyfitter_cfg.c **** /*******************************************************************************
 132:.\Generated_Source\PSoC4/cyfitter_cfg.c **** * Function Name: cfg_write_bytes32
 133:.\Generated_Source\PSoC4/cyfitter_cfg.c **** ********************************************************************************
 134:.\Generated_Source\PSoC4/cyfitter_cfg.c **** * Summary:
 135:.\Generated_Source\PSoC4/cyfitter_cfg.c **** *  This function is used for setting up the chip configuration areas that
 136:.\Generated_Source\PSoC4/cyfitter_cfg.c **** *  contain relatively sparse data.
 137:.\Generated_Source\PSoC4/cyfitter_cfg.c **** *
 138:.\Generated_Source\PSoC4/cyfitter_cfg.c **** * Parameters:
 139:.\Generated_Source\PSoC4/cyfitter_cfg.c **** *   void
 140:.\Generated_Source\PSoC4/cyfitter_cfg.c **** *
 141:.\Generated_Source\PSoC4/cyfitter_cfg.c **** * Return:
 142:.\Generated_Source\PSoC4/cyfitter_cfg.c **** *   void
 143:.\Generated_Source\PSoC4/cyfitter_cfg.c **** *
 144:.\Generated_Source\PSoC4/cyfitter_cfg.c **** *******************************************************************************/
 145:.\Generated_Source\PSoC4/cyfitter_cfg.c **** static void cfg_write_bytes32(const uint32 addr_table[], const cy_cfg_addrvalue_t data_table[]);
 146:.\Generated_Source\PSoC4/cyfitter_cfg.c **** static void cfg_write_bytes32(const uint32 addr_table[], const cy_cfg_addrvalue_t data_table[])
ARM GAS  F:\UTILIS~1\demasson\AppData\Local\Temp\cctFxQuy.s 			page 6


 147:.\Generated_Source\PSoC4/cyfitter_cfg.c **** {
 140              		.loc 1 147 0
 141              		.cfi_startproc
 142 0000 80B5     		push	{r7, lr}
 143              	.LCFI9:
 144              		.cfi_def_cfa_offset 8
 145              		.cfi_offset 7, -8
 146              		.cfi_offset 14, -4
 147 0002 86B0     		sub	sp, sp, #24
 148              	.LCFI10:
 149              		.cfi_def_cfa_offset 32
 150 0004 00AF     		add	r7, sp, #0
 151              	.LCFI11:
 152              		.cfi_def_cfa_register 7
 153 0006 7860     		str	r0, [r7, #4]
 154 0008 3960     		str	r1, [r7]
 148:.\Generated_Source\PSoC4/cyfitter_cfg.c **** 	/* For 32-bit little-endian architectures */
 149:.\Generated_Source\PSoC4/cyfitter_cfg.c **** 	uint32 i, j = 0u;
 155              		.loc 1 149 0
 156 000a 0023     		mov	r3, #0
 157 000c 3B61     		str	r3, [r7, #16]
 150:.\Generated_Source\PSoC4/cyfitter_cfg.c **** 	for (i = 0u; i < CY_CFG_BASE_ADDR_COUNT; i++)
 158              		.loc 1 150 0
 159 000e 0023     		mov	r3, #0
 160 0010 7B61     		str	r3, [r7, #20]
 161 0012 2EE0     		b	.L5
 162              	.L8:
 163              	.LBB2:
 151:.\Generated_Source\PSoC4/cyfitter_cfg.c **** 	{
 152:.\Generated_Source\PSoC4/cyfitter_cfg.c **** 		uint32 baseAddr = addr_table[i];
 164              		.loc 1 152 0
 165 0014 7B69     		ldr	r3, [r7, #20]
 166 0016 9B00     		lsl	r3, r3, #2
 167 0018 7A68     		ldr	r2, [r7, #4]
 168 001a D318     		add	r3, r2, r3
 169 001c 1B68     		ldr	r3, [r3]
 170 001e BB60     		str	r3, [r7, #8]
 153:.\Generated_Source\PSoC4/cyfitter_cfg.c **** 		uint8 count = (uint8)baseAddr;
 171              		.loc 1 153 0
 172 0020 3B1C     		mov	r3, r7
 173 0022 0F33     		add	r3, r3, #15
 174 0024 BA68     		ldr	r2, [r7, #8]
 175 0026 1A70     		strb	r2, [r3]
 154:.\Generated_Source\PSoC4/cyfitter_cfg.c **** 		baseAddr &= 0xFFFFFF00u;
 176              		.loc 1 154 0
 177 0028 BB68     		ldr	r3, [r7, #8]
 178 002a FF22     		mov	r2, #255
 179 002c 9343     		bic	r3, r2
 180 002e BB60     		str	r3, [r7, #8]
 155:.\Generated_Source\PSoC4/cyfitter_cfg.c **** 		while (count != 0u)
 181              		.loc 1 155 0
 182 0030 17E0     		b	.L6
 183              	.L7:
 156:.\Generated_Source\PSoC4/cyfitter_cfg.c **** 		{
 157:.\Generated_Source\PSoC4/cyfitter_cfg.c **** 			CY_SET_XTND_REG8((void CYFAR *)(baseAddr + data_table[j].offset), data_table[j].value);
 184              		.loc 1 157 0
 185 0032 3B69     		ldr	r3, [r7, #16]
ARM GAS  F:\UTILIS~1\demasson\AppData\Local\Temp\cctFxQuy.s 			page 7


 186 0034 5B00     		lsl	r3, r3, #1
 187 0036 3A68     		ldr	r2, [r7]
 188 0038 D318     		add	r3, r2, r3
 189 003a 1B78     		ldrb	r3, [r3]
 190 003c 1A1C     		mov	r2, r3
 191 003e BB68     		ldr	r3, [r7, #8]
 192 0040 D318     		add	r3, r2, r3
 193 0042 3A69     		ldr	r2, [r7, #16]
 194 0044 5200     		lsl	r2, r2, #1
 195 0046 3968     		ldr	r1, [r7]
 196 0048 8A18     		add	r2, r1, r2
 197 004a 5278     		ldrb	r2, [r2, #1]
 198 004c 1A70     		strb	r2, [r3]
 158:.\Generated_Source\PSoC4/cyfitter_cfg.c **** 			j++;
 199              		.loc 1 158 0
 200 004e 3B69     		ldr	r3, [r7, #16]
 201 0050 0133     		add	r3, r3, #1
 202 0052 3B61     		str	r3, [r7, #16]
 159:.\Generated_Source\PSoC4/cyfitter_cfg.c **** 			count--;
 203              		.loc 1 159 0
 204 0054 3B1C     		mov	r3, r7
 205 0056 0F33     		add	r3, r3, #15
 206 0058 3A1C     		mov	r2, r7
 207 005a 0F32     		add	r2, r2, #15
 208 005c 1278     		ldrb	r2, [r2]
 209 005e 013A     		sub	r2, r2, #1
 210 0060 1A70     		strb	r2, [r3]
 211              	.L6:
 155:.\Generated_Source\PSoC4/cyfitter_cfg.c **** 		while (count != 0u)
 212              		.loc 1 155 0 discriminator 1
 213 0062 3B1C     		mov	r3, r7
 214 0064 0F33     		add	r3, r3, #15
 215 0066 1B78     		ldrb	r3, [r3]
 216 0068 002B     		cmp	r3, #0
 217 006a E2D1     		bne	.L7
 218              	.LBE2:
 150:.\Generated_Source\PSoC4/cyfitter_cfg.c **** 	for (i = 0u; i < CY_CFG_BASE_ADDR_COUNT; i++)
 219              		.loc 1 150 0
 220 006c 7B69     		ldr	r3, [r7, #20]
 221 006e 0133     		add	r3, r3, #1
 222 0070 7B61     		str	r3, [r7, #20]
 223              	.L5:
 150:.\Generated_Source\PSoC4/cyfitter_cfg.c **** 	for (i = 0u; i < CY_CFG_BASE_ADDR_COUNT; i++)
 224              		.loc 1 150 0 is_stmt 0 discriminator 1
 225 0072 7B69     		ldr	r3, [r7, #20]
 226 0074 072B     		cmp	r3, #7
 227 0076 CDD9     		bls	.L8
 160:.\Generated_Source\PSoC4/cyfitter_cfg.c **** 		}
 161:.\Generated_Source\PSoC4/cyfitter_cfg.c **** 	}
 162:.\Generated_Source\PSoC4/cyfitter_cfg.c **** }
 228              		.loc 1 162 0 is_stmt 1
 229 0078 BD46     		mov	sp, r7
 230 007a 06B0     		add	sp, sp, #24
 231              		@ sp needed for prologue
 232 007c 80BD     		pop	{r7, pc}
 233              		.cfi_endproc
 234              	.LFE3:
ARM GAS  F:\UTILIS~1\demasson\AppData\Local\Temp\cctFxQuy.s 			page 8


 235              		.size	cfg_write_bytes32, .-cfg_write_bytes32
 236 007e C046     		.section	.psocinit,"ax",%progbits
 237              		.align	2
 238              		.code	16
 239              		.thumb_func
 240              		.type	SetIMOBGTrims, %function
 241              	SetIMOBGTrims:
 242              	.LFB4:
 163:.\Generated_Source\PSoC4/cyfitter_cfg.c **** 
 164:.\Generated_Source\PSoC4/cyfitter_cfg.c **** /*******************************************************************************
 165:.\Generated_Source\PSoC4/cyfitter_cfg.c **** * Function Name: SetIMOBGTrims
 166:.\Generated_Source\PSoC4/cyfitter_cfg.c **** ********************************************************************************
 167:.\Generated_Source\PSoC4/cyfitter_cfg.c **** *
 168:.\Generated_Source\PSoC4/cyfitter_cfg.c **** * Summary:
 169:.\Generated_Source\PSoC4/cyfitter_cfg.c **** *   Performs the configuration of the bandgap trim for the IMO based on the given
 170:.\Generated_Source\PSoC4/cyfitter_cfg.c **** *   expected frequency of the IMO. 
 171:.\Generated_Source\PSoC4/cyfitter_cfg.c **** *
 172:.\Generated_Source\PSoC4/cyfitter_cfg.c **** * Parameters:
 173:.\Generated_Source\PSoC4/cyfitter_cfg.c **** *   imoFreq: Frequency for operation of the IMO.
 174:.\Generated_Source\PSoC4/cyfitter_cfg.c **** *
 175:.\Generated_Source\PSoC4/cyfitter_cfg.c **** * Return:
 176:.\Generated_Source\PSoC4/cyfitter_cfg.c **** *   void
 177:.\Generated_Source\PSoC4/cyfitter_cfg.c **** *
 178:.\Generated_Source\PSoC4/cyfitter_cfg.c **** *******************************************************************************/
 179:.\Generated_Source\PSoC4/cyfitter_cfg.c **** static void SetIMOBGTrims(uint8 imoFreq);
 180:.\Generated_Source\PSoC4/cyfitter_cfg.c **** CY_CFG_SECTION
 181:.\Generated_Source\PSoC4/cyfitter_cfg.c **** static void SetIMOBGTrims(uint8 imoFreq)
 182:.\Generated_Source\PSoC4/cyfitter_cfg.c **** {
 243              		.loc 1 182 0
 244              		.cfi_startproc
 245 0000 80B5     		push	{r7, lr}
 246              	.LCFI12:
 247              		.cfi_def_cfa_offset 8
 248              		.cfi_offset 7, -8
 249              		.cfi_offset 14, -4
 250 0002 84B0     		sub	sp, sp, #16
 251              	.LCFI13:
 252              		.cfi_def_cfa_offset 24
 253 0004 00AF     		add	r7, sp, #0
 254              	.LCFI14:
 255              		.cfi_def_cfa_register 7
 256 0006 021C     		mov	r2, r0
 257 0008 FB1D     		add	r3, r7, #7
 258 000a 1A70     		strb	r2, [r3]
 183:.\Generated_Source\PSoC4/cyfitter_cfg.c **** 	CYPACKED typedef struct {
 184:.\Generated_Source\PSoC4/cyfitter_cfg.c **** 		uint8 freq;
 185:.\Generated_Source\PSoC4/cyfitter_cfg.c **** 		uint8 absolute;
 186:.\Generated_Source\PSoC4/cyfitter_cfg.c **** 		uint8 tmpco;
 187:.\Generated_Source\PSoC4/cyfitter_cfg.c **** 	} CYPACKED_ATTR imo_trim_entry_t;
 188:.\Generated_Source\PSoC4/cyfitter_cfg.c **** 
 189:.\Generated_Source\PSoC4/cyfitter_cfg.c **** 	CYPACKED typedef struct {
 190:.\Generated_Source\PSoC4/cyfitter_cfg.c **** 		imo_trim_entry_t entries[4];
 191:.\Generated_Source\PSoC4/cyfitter_cfg.c **** 	} CYPACKED_ATTR imo_trim_table_t;
 192:.\Generated_Source\PSoC4/cyfitter_cfg.c **** 
 193:.\Generated_Source\PSoC4/cyfitter_cfg.c **** 	static const imo_trim_table_t *imo_trim_table = (const imo_trim_table_t *)CYREG_SFLASH_IMO_MAXF0;
 194:.\Generated_Source\PSoC4/cyfitter_cfg.c **** 	static const uint32 IMO_TRIM_FREQ_TABLE_ENTRIES = sizeof(imo_trim_table->entries)/sizeof(imo_trim_
 195:.\Generated_Source\PSoC4/cyfitter_cfg.c **** 
ARM GAS  F:\UTILIS~1\demasson\AppData\Local\Temp\cctFxQuy.s 			page 9


 196:.\Generated_Source\PSoC4/cyfitter_cfg.c **** 	int32 imoTrimIndex;
 197:.\Generated_Source\PSoC4/cyfitter_cfg.c **** 	uint8 setAbs;
 198:.\Generated_Source\PSoC4/cyfitter_cfg.c **** 	uint8 setTmpCo;
 199:.\Generated_Source\PSoC4/cyfitter_cfg.c **** 
 200:.\Generated_Source\PSoC4/cyfitter_cfg.c **** 	/* Traverse the SFLASH IMO frequency-dependent bandgap trim table to
 201:.\Generated_Source\PSoC4/cyfitter_cfg.c **** 	 * locate the appropriate value to trim the IMO bandgap based on freq. */
 202:.\Generated_Source\PSoC4/cyfitter_cfg.c **** 	setAbs = CY_GET_REG8((const void *)CYREG_SFLASH_IMO_ABS4);
 259              		.loc 1 202 0
 260 000c 224A     		ldr	r2, .L13
 261 000e 3B1C     		mov	r3, r7
 262 0010 0B33     		add	r3, r3, #11
 263 0012 1278     		ldrb	r2, [r2]
 264 0014 1A70     		strb	r2, [r3]
 203:.\Generated_Source\PSoC4/cyfitter_cfg.c **** 	setTmpCo = CY_GET_REG8((const void *)CYREG_SFLASH_IMO_TMPCO4);
 265              		.loc 1 203 0
 266 0016 214A     		ldr	r2, .L13+4
 267 0018 3B1C     		mov	r3, r7
 268 001a 0A33     		add	r3, r3, #10
 269 001c 1278     		ldrb	r2, [r2]
 270 001e 1A70     		strb	r2, [r3]
 204:.\Generated_Source\PSoC4/cyfitter_cfg.c **** 	for (imoTrimIndex = ((int32)IMO_TRIM_FREQ_TABLE_ENTRIES)-1;
 271              		.loc 1 204 0
 272 0020 1F4B     		ldr	r3, .L13+8
 273 0022 1B68     		ldr	r3, [r3]
 274 0024 013B     		sub	r3, r3, #1
 275 0026 FB60     		str	r3, [r7, #12]
 276 0028 1AE0     		b	.L10
 277              	.L12:
 205:.\Generated_Source\PSoC4/cyfitter_cfg.c **** 	     (imoTrimIndex >= 0) && (imoFreq <= imo_trim_table->entries[imoTrimIndex].freq);
 206:.\Generated_Source\PSoC4/cyfitter_cfg.c **** 	     imoTrimIndex--)
 207:.\Generated_Source\PSoC4/cyfitter_cfg.c **** 	{
 208:.\Generated_Source\PSoC4/cyfitter_cfg.c **** 		setAbs = imo_trim_table->entries[imoTrimIndex].absolute;
 278              		.loc 1 208 0
 279 002a 1E4B     		ldr	r3, .L13+12
 280 002c 1868     		ldr	r0, [r3]
 281 002e 391C     		mov	r1, r7
 282 0030 0B31     		add	r1, r1, #11
 283 0032 FA68     		ldr	r2, [r7, #12]
 284 0034 131C     		mov	r3, r2
 285 0036 5B00     		lsl	r3, r3, #1
 286 0038 9B18     		add	r3, r3, r2
 287 003a C318     		add	r3, r0, r3
 288 003c 0133     		add	r3, r3, #1
 289 003e 1B78     		ldrb	r3, [r3]
 290 0040 0B70     		strb	r3, [r1]
 209:.\Generated_Source\PSoC4/cyfitter_cfg.c **** 		setTmpCo = imo_trim_table->entries[imoTrimIndex].tmpco;
 291              		.loc 1 209 0
 292 0042 184B     		ldr	r3, .L13+12
 293 0044 1868     		ldr	r0, [r3]
 294 0046 391C     		mov	r1, r7
 295 0048 0A31     		add	r1, r1, #10
 296 004a FA68     		ldr	r2, [r7, #12]
 297 004c 131C     		mov	r3, r2
 298 004e 5B00     		lsl	r3, r3, #1
 299 0050 9B18     		add	r3, r3, r2
 300 0052 C318     		add	r3, r0, r3
 301 0054 0233     		add	r3, r3, #2
ARM GAS  F:\UTILIS~1\demasson\AppData\Local\Temp\cctFxQuy.s 			page 10


 302 0056 1B78     		ldrb	r3, [r3]
 303 0058 0B70     		strb	r3, [r1]
 206:.\Generated_Source\PSoC4/cyfitter_cfg.c **** 	     imoTrimIndex--)
 304              		.loc 1 206 0
 305 005a FB68     		ldr	r3, [r7, #12]
 306 005c 013B     		sub	r3, r3, #1
 307 005e FB60     		str	r3, [r7, #12]
 308              	.L10:
 204:.\Generated_Source\PSoC4/cyfitter_cfg.c **** 	for (imoTrimIndex = ((int32)IMO_TRIM_FREQ_TABLE_ENTRIES)-1;
 309              		.loc 1 204 0 discriminator 1
 310 0060 FB68     		ldr	r3, [r7, #12]
 311 0062 002B     		cmp	r3, #0
 312 0064 0ADB     		blt	.L11
 205:.\Generated_Source\PSoC4/cyfitter_cfg.c **** 	     (imoTrimIndex >= 0) && (imoFreq <= imo_trim_table->entries[imoTrimIndex].freq);
 313              		.loc 1 205 0
 314 0066 0F4B     		ldr	r3, .L13+12
 315 0068 1968     		ldr	r1, [r3]
 316 006a FA68     		ldr	r2, [r7, #12]
 317 006c 131C     		mov	r3, r2
 318 006e 5B00     		lsl	r3, r3, #1
 319 0070 9B18     		add	r3, r3, r2
 320 0072 5B5C     		ldrb	r3, [r3, r1]
 321 0074 FA1D     		add	r2, r7, #7
 322 0076 1278     		ldrb	r2, [r2]
 323 0078 9A42     		cmp	r2, r3
 324 007a D6D9     		bls	.L12
 325              	.L11:
 210:.\Generated_Source\PSoC4/cyfitter_cfg.c **** 	}
 211:.\Generated_Source\PSoC4/cyfitter_cfg.c **** 
 212:.\Generated_Source\PSoC4/cyfitter_cfg.c **** 	CY_SET_REG32((void *)CYREG_PWR_BG_TRIM4, setAbs);
 326              		.loc 1 212 0
 327 007c 0A4B     		ldr	r3, .L13+16
 328 007e 3A1C     		mov	r2, r7
 329 0080 0B32     		add	r2, r2, #11
 330 0082 1278     		ldrb	r2, [r2]
 331 0084 1A60     		str	r2, [r3]
 213:.\Generated_Source\PSoC4/cyfitter_cfg.c **** 	CY_SET_REG32((void *)CYREG_PWR_BG_TRIM5, setTmpCo);
 332              		.loc 1 213 0
 333 0086 094B     		ldr	r3, .L13+20
 334 0088 3A1C     		mov	r2, r7
 335 008a 0A32     		add	r2, r2, #10
 336 008c 1278     		ldrb	r2, [r2]
 337 008e 1A60     		str	r2, [r3]
 214:.\Generated_Source\PSoC4/cyfitter_cfg.c **** }
 338              		.loc 1 214 0
 339 0090 BD46     		mov	sp, r7
 340 0092 04B0     		add	sp, sp, #16
 341              		@ sp needed for prologue
 342 0094 80BD     		pop	{r7, pc}
 343              	.L14:
 344 0096 C046     		.align	2
 345              	.L13:
 346 0098 CCF1FF0F 		.word	268431820
 347 009c CDF1FF0F 		.word	268431821
 348 00a0 14020000 		.word	IMO_TRIM_FREQ_TABLE_ENTRIES.4642
 349 00a4 00000000 		.word	imo_trim_table.4641
 350 00a8 1CFF0B40 		.word	1074528028
ARM GAS  F:\UTILIS~1\demasson\AppData\Local\Temp\cctFxQuy.s 			page 11


 351 00ac 20FF0B40 		.word	1074528032
 352              		.cfi_endproc
 353              	.LFE4:
 354              		.size	SetIMOBGTrims, .-SetIMOBGTrims
 355              		.align	2
 356              		.code	16
 357              		.thumb_func
 358              		.type	ClockSetup, %function
 359              	ClockSetup:
 360              	.LFB5:
 215:.\Generated_Source\PSoC4/cyfitter_cfg.c **** 
 216:.\Generated_Source\PSoC4/cyfitter_cfg.c **** 
 217:.\Generated_Source\PSoC4/cyfitter_cfg.c **** 
 218:.\Generated_Source\PSoC4/cyfitter_cfg.c **** /*******************************************************************************
 219:.\Generated_Source\PSoC4/cyfitter_cfg.c **** * Function Name: ClockSetup
 220:.\Generated_Source\PSoC4/cyfitter_cfg.c **** ********************************************************************************
 221:.\Generated_Source\PSoC4/cyfitter_cfg.c **** *
 222:.\Generated_Source\PSoC4/cyfitter_cfg.c **** * Summary:
 223:.\Generated_Source\PSoC4/cyfitter_cfg.c **** *   Performs the initialization of all of the clocks in the device based on the
 224:.\Generated_Source\PSoC4/cyfitter_cfg.c **** *   settings in the Clock tab of the DWR.  This includes enabling the requested
 225:.\Generated_Source\PSoC4/cyfitter_cfg.c **** *   clocks and setting the necessary dividers to produce the desired frequency. 
 226:.\Generated_Source\PSoC4/cyfitter_cfg.c **** *
 227:.\Generated_Source\PSoC4/cyfitter_cfg.c **** * Parameters:
 228:.\Generated_Source\PSoC4/cyfitter_cfg.c **** *   void
 229:.\Generated_Source\PSoC4/cyfitter_cfg.c **** *
 230:.\Generated_Source\PSoC4/cyfitter_cfg.c **** * Return:
 231:.\Generated_Source\PSoC4/cyfitter_cfg.c **** *   void
 232:.\Generated_Source\PSoC4/cyfitter_cfg.c **** *
 233:.\Generated_Source\PSoC4/cyfitter_cfg.c **** *******************************************************************************/
 234:.\Generated_Source\PSoC4/cyfitter_cfg.c **** static void ClockSetup(void);
 235:.\Generated_Source\PSoC4/cyfitter_cfg.c **** CY_CFG_SECTION
 236:.\Generated_Source\PSoC4/cyfitter_cfg.c **** static void ClockSetup(void)
 237:.\Generated_Source\PSoC4/cyfitter_cfg.c **** {
 361              		.loc 1 237 0
 362              		.cfi_startproc
 363 00b0 80B5     		push	{r7, lr}
 364              	.LCFI15:
 365              		.cfi_def_cfa_offset 8
 366              		.cfi_offset 7, -8
 367              		.cfi_offset 14, -4
 368 00b2 00AF     		add	r7, sp, #0
 369              	.LCFI16:
 370              		.cfi_def_cfa_register 7
 238:.\Generated_Source\PSoC4/cyfitter_cfg.c **** 	/* Enable HALF_EN before trimming for the flash accelerator. */
 239:.\Generated_Source\PSoC4/cyfitter_cfg.c **** 	CY_SET_REG32((void CYXDATA *)(CYREG_CLK_SELECT), (CY_GET_REG32((void *)CYREG_CLK_SELECT) | 0x00040
 371              		.loc 1 239 0
 372 00b4 194B     		ldr	r3, .L16
 373 00b6 194A     		ldr	r2, .L16
 374 00b8 1268     		ldr	r2, [r2]
 375 00ba 8021     		mov	r1, #128
 376 00bc C902     		lsl	r1, r1, #11
 377 00be 0A43     		orr	r2, r1
 378 00c0 1A60     		str	r2, [r3]
 240:.\Generated_Source\PSoC4/cyfitter_cfg.c **** 
 241:.\Generated_Source\PSoC4/cyfitter_cfg.c **** 	/* Trim IMO BG based on desired frequency. */
 242:.\Generated_Source\PSoC4/cyfitter_cfg.c **** 	SetIMOBGTrims(24u);
 379              		.loc 1 242 0
ARM GAS  F:\UTILIS~1\demasson\AppData\Local\Temp\cctFxQuy.s 			page 12


 380 00c2 1820     		mov	r0, #24
 381 00c4 FFF79CFF 		bl	SetIMOBGTrims
 243:.\Generated_Source\PSoC4/cyfitter_cfg.c **** 
 244:.\Generated_Source\PSoC4/cyfitter_cfg.c **** 	/* Going less than or equal to 24MHz, so update the clock speed then adjust trim value. */
 245:.\Generated_Source\PSoC4/cyfitter_cfg.c **** 	CY_SET_REG32((void CYXDATA *)(CYREG_CLK_IMO_TRIM2), (25u));
 382              		.loc 1 245 0
 383 00c8 154B     		ldr	r3, .L16+4
 384 00ca 1922     		mov	r2, #25
 385 00cc 1A60     		str	r2, [r3]
 246:.\Generated_Source\PSoC4/cyfitter_cfg.c **** 	CyDelayCycles(5u);
 386              		.loc 1 246 0
 387 00ce 0520     		mov	r0, #5
 388 00d0 FFF7FEFF 		bl	CyDelayCycles
 247:.\Generated_Source\PSoC4/cyfitter_cfg.c **** 	CY_SET_REG32((void CYXDATA *)(CYREG_CLK_IMO_TRIM1), (CY_GET_REG8((void *)CYREG_SFLASH_IMO_TRIM21))
 389              		.loc 1 247 0
 390 00d4 134B     		ldr	r3, .L16+8
 391 00d6 144A     		ldr	r2, .L16+12
 392 00d8 1278     		ldrb	r2, [r2]
 393 00da D2B2     		uxtb	r2, r2
 394 00dc 1A60     		str	r2, [r3]
 248:.\Generated_Source\PSoC4/cyfitter_cfg.c **** 	CyDelayUs(5u);
 395              		.loc 1 248 0
 396 00de 0520     		mov	r0, #5
 397 00e0 FFF7FEFF 		bl	CyDelayUs
 249:.\Generated_Source\PSoC4/cyfitter_cfg.c **** 
 250:.\Generated_Source\PSoC4/cyfitter_cfg.c **** 	/* Disable HALF_EN since it is not required at this IMO frequency. */
 251:.\Generated_Source\PSoC4/cyfitter_cfg.c **** 	CY_SET_REG32((void CYXDATA *)(CYREG_CLK_SELECT), (CY_GET_REG32((void *)CYREG_CLK_SELECT) & 0xFFFBF
 398              		.loc 1 251 0
 399 00e4 0D4B     		ldr	r3, .L16
 400 00e6 0D4A     		ldr	r2, .L16
 401 00e8 1168     		ldr	r1, [r2]
 402 00ea 104A     		ldr	r2, .L16+16
 403 00ec 0A40     		and	r2, r1
 404 00ee 1A60     		str	r2, [r3]
 252:.\Generated_Source\PSoC4/cyfitter_cfg.c **** 
 253:.\Generated_Source\PSoC4/cyfitter_cfg.c **** 	/* CYDEV_CLK_SELECT00 Starting address: CYDEV_CLK_SELECT00 */
 254:.\Generated_Source\PSoC4/cyfitter_cfg.c **** 	CY_SET_XTND_REG32((void CYFAR *)(CYREG_CLK_SELECT02), 0x00000010u);
 405              		.loc 1 254 0
 406 00f0 0F4B     		ldr	r3, .L16+20
 407 00f2 1022     		mov	r2, #16
 408 00f4 1A60     		str	r2, [r3]
 255:.\Generated_Source\PSoC4/cyfitter_cfg.c **** 	CY_SET_XTND_REG32((void CYFAR *)(CYREG_CLK_SELECT12), 0x00000020u);
 409              		.loc 1 255 0
 410 00f6 0F4B     		ldr	r3, .L16+24
 411 00f8 2022     		mov	r2, #32
 412 00fa 1A60     		str	r2, [r3]
 256:.\Generated_Source\PSoC4/cyfitter_cfg.c **** 
 257:.\Generated_Source\PSoC4/cyfitter_cfg.c **** 	/* CYDEV_CLK_IMO_CONFIG Starting address: CYDEV_CLK_IMO_CONFIG */
 258:.\Generated_Source\PSoC4/cyfitter_cfg.c **** 	CY_SET_XTND_REG32((void CYFAR *)(CYREG_CLK_IMO_CONFIG), 0x80000000u);
 413              		.loc 1 258 0
 414 00fc 0E4B     		ldr	r3, .L16+28
 415 00fe 8022     		mov	r2, #128
 416 0100 1206     		lsl	r2, r2, #24
 417 0102 1A60     		str	r2, [r3]
 259:.\Generated_Source\PSoC4/cyfitter_cfg.c **** 
 260:.\Generated_Source\PSoC4/cyfitter_cfg.c **** 	/* CYDEV_CLK_ILO_CONFIG Starting address: CYDEV_CLK_ILO_CONFIG */
 261:.\Generated_Source\PSoC4/cyfitter_cfg.c **** 	CY_SET_XTND_REG32((void CYFAR *)(CYREG_CLK_ILO_CONFIG), 0x80000000u);
ARM GAS  F:\UTILIS~1\demasson\AppData\Local\Temp\cctFxQuy.s 			page 13


 418              		.loc 1 261 0
 419 0104 0D4B     		ldr	r3, .L16+32
 420 0106 8022     		mov	r2, #128
 421 0108 1206     		lsl	r2, r2, #24
 422 010a 1A60     		str	r2, [r3]
 262:.\Generated_Source\PSoC4/cyfitter_cfg.c **** 
 263:.\Generated_Source\PSoC4/cyfitter_cfg.c **** 	/* CYDEV_CLK_DIVIDER_A00 Starting address: CYDEV_CLK_DIVIDER_A00 */
 264:.\Generated_Source\PSoC4/cyfitter_cfg.c **** 	CY_SET_XTND_REG32((void CYFAR *)(CYREG_CLK_DIVIDER_A00), 0x80000003u);
 423              		.loc 1 264 0
 424 010c 0C4B     		ldr	r3, .L16+36
 425 010e 0D4A     		ldr	r2, .L16+40
 426 0110 1A60     		str	r2, [r3]
 265:.\Generated_Source\PSoC4/cyfitter_cfg.c **** 
 266:.\Generated_Source\PSoC4/cyfitter_cfg.c **** 	/* CYDEV_CLK_DIVIDER_B00 Starting address: CYDEV_CLK_DIVIDER_B00 */
 267:.\Generated_Source\PSoC4/cyfitter_cfg.c **** 	CY_SET_XTND_REG32((void CYFAR *)(CYREG_CLK_DIVIDER_B00), 0x800000EFu);
 427              		.loc 1 267 0
 428 0112 0D4B     		ldr	r3, .L16+44
 429 0114 0D4A     		ldr	r2, .L16+48
 430 0116 1A60     		str	r2, [r3]
 268:.\Generated_Source\PSoC4/cyfitter_cfg.c **** 
 269:.\Generated_Source\PSoC4/cyfitter_cfg.c **** }
 431              		.loc 1 269 0
 432 0118 BD46     		mov	sp, r7
 433              		@ sp needed for prologue
 434 011a 80BD     		pop	{r7, pc}
 435              	.L17:
 436              		.align	2
 437              	.L16:
 438 011c 00010B40 		.word	1074462976
 439 0120 2CFF0B40 		.word	1074528044
 440 0124 28FF0B40 		.word	1074528040
 441 0128 E5F1FF0F 		.word	268431845
 442 012c FFFFFBFF 		.word	-262145
 443 0130 08020240 		.word	1073873416
 444 0134 30020240 		.word	1073873456
 445 0138 08010B40 		.word	1074462984
 446 013c 04010B40 		.word	1074462980
 447 0140 00000240 		.word	1073872896
 448 0144 03000080 		.word	-2147483645
 449 0148 40000240 		.word	1073872960
 450 014c EF000080 		.word	-2147483409
 451              		.cfi_endproc
 452              	.LFE5:
 453              		.size	ClockSetup, .-ClockSetup
 454              		.section	.text.AnalogSetDefault,"ax",%progbits
 455              		.align	2
 456              		.code	16
 457              		.thumb_func
 458              		.type	AnalogSetDefault, %function
 459              	AnalogSetDefault:
 460              	.LFB6:
 270:.\Generated_Source\PSoC4/cyfitter_cfg.c **** 
 271:.\Generated_Source\PSoC4/cyfitter_cfg.c **** 
 272:.\Generated_Source\PSoC4/cyfitter_cfg.c **** /* Analog API Functions */
 273:.\Generated_Source\PSoC4/cyfitter_cfg.c **** 
 274:.\Generated_Source\PSoC4/cyfitter_cfg.c **** 
 275:.\Generated_Source\PSoC4/cyfitter_cfg.c **** /*******************************************************************************
ARM GAS  F:\UTILIS~1\demasson\AppData\Local\Temp\cctFxQuy.s 			page 14


 276:.\Generated_Source\PSoC4/cyfitter_cfg.c **** * Function Name: AnalogSetDefault
 277:.\Generated_Source\PSoC4/cyfitter_cfg.c **** ********************************************************************************
 278:.\Generated_Source\PSoC4/cyfitter_cfg.c **** *
 279:.\Generated_Source\PSoC4/cyfitter_cfg.c **** * Summary:
 280:.\Generated_Source\PSoC4/cyfitter_cfg.c **** *  Sets up the analog portions of the chip to default values based on chip
 281:.\Generated_Source\PSoC4/cyfitter_cfg.c **** *  configuration options from the project.
 282:.\Generated_Source\PSoC4/cyfitter_cfg.c **** *
 283:.\Generated_Source\PSoC4/cyfitter_cfg.c **** * Parameters:
 284:.\Generated_Source\PSoC4/cyfitter_cfg.c **** *  void
 285:.\Generated_Source\PSoC4/cyfitter_cfg.c **** *
 286:.\Generated_Source\PSoC4/cyfitter_cfg.c **** * Return:
 287:.\Generated_Source\PSoC4/cyfitter_cfg.c **** *  void
 288:.\Generated_Source\PSoC4/cyfitter_cfg.c **** *
 289:.\Generated_Source\PSoC4/cyfitter_cfg.c **** *******************************************************************************/
 290:.\Generated_Source\PSoC4/cyfitter_cfg.c **** static void AnalogSetDefault(void);
 291:.\Generated_Source\PSoC4/cyfitter_cfg.c **** static void AnalogSetDefault(void)
 292:.\Generated_Source\PSoC4/cyfitter_cfg.c **** {
 461              		.loc 1 292 0
 462              		.cfi_startproc
 463 0000 80B5     		push	{r7, lr}
 464              	.LCFI17:
 465              		.cfi_def_cfa_offset 8
 466              		.cfi_offset 7, -8
 467              		.cfi_offset 14, -4
 468 0002 00AF     		add	r7, sp, #0
 469              	.LCFI18:
 470              		.cfi_def_cfa_register 7
 293:.\Generated_Source\PSoC4/cyfitter_cfg.c **** }
 471              		.loc 1 293 0
 472 0004 BD46     		mov	sp, r7
 473              		@ sp needed for prologue
 474 0006 80BD     		pop	{r7, pc}
 475              		.cfi_endproc
 476              	.LFE6:
 477              		.size	AnalogSetDefault, .-AnalogSetDefault
 478              		.section	.psocinit
 479              		.align	2
 480              		.global	cyfitter_cfg
 481              		.code	16
 482              		.thumb_func
 483              		.type	cyfitter_cfg, %function
 484              	cyfitter_cfg:
 485              	.LFB7:
 294:.\Generated_Source\PSoC4/cyfitter_cfg.c **** 
 295:.\Generated_Source\PSoC4/cyfitter_cfg.c **** #define CY_AMUX_UNUSED CYREG_CM0_ROM_DWT
 296:.\Generated_Source\PSoC4/cyfitter_cfg.c **** 
 297:.\Generated_Source\PSoC4/cyfitter_cfg.c **** 
 298:.\Generated_Source\PSoC4/cyfitter_cfg.c **** /*******************************************************************************
 299:.\Generated_Source\PSoC4/cyfitter_cfg.c **** * Function Name: cyfitter_cfg
 300:.\Generated_Source\PSoC4/cyfitter_cfg.c **** ********************************************************************************
 301:.\Generated_Source\PSoC4/cyfitter_cfg.c **** * Summary:
 302:.\Generated_Source\PSoC4/cyfitter_cfg.c **** *  This function is called by the start-up code for the selected device. It
 303:.\Generated_Source\PSoC4/cyfitter_cfg.c **** *  performs all of the necessary device configuration based on the design
 304:.\Generated_Source\PSoC4/cyfitter_cfg.c **** *  settings.  This includes settings from the Design Wide Resources (DWR) such
 305:.\Generated_Source\PSoC4/cyfitter_cfg.c **** *  as Clocks and Pins as well as any component configuration that is necessary.
 306:.\Generated_Source\PSoC4/cyfitter_cfg.c **** *
 307:.\Generated_Source\PSoC4/cyfitter_cfg.c **** * Parameters:  
ARM GAS  F:\UTILIS~1\demasson\AppData\Local\Temp\cctFxQuy.s 			page 15


 308:.\Generated_Source\PSoC4/cyfitter_cfg.c **** *   void
 309:.\Generated_Source\PSoC4/cyfitter_cfg.c **** *
 310:.\Generated_Source\PSoC4/cyfitter_cfg.c **** * Return:
 311:.\Generated_Source\PSoC4/cyfitter_cfg.c **** *   void
 312:.\Generated_Source\PSoC4/cyfitter_cfg.c **** *
 313:.\Generated_Source\PSoC4/cyfitter_cfg.c **** *******************************************************************************/
 314:.\Generated_Source\PSoC4/cyfitter_cfg.c **** CY_CFG_SECTION
 315:.\Generated_Source\PSoC4/cyfitter_cfg.c **** void cyfitter_cfg(void)
 316:.\Generated_Source\PSoC4/cyfitter_cfg.c **** {
 486              		.loc 1 316 0
 487              		.cfi_startproc
 488 0150 80B5     		push	{r7, lr}
 489              	.LCFI19:
 490              		.cfi_def_cfa_offset 8
 491              		.cfi_offset 7, -8
 492              		.cfi_offset 14, -4
 493 0152 82B0     		sub	sp, sp, #8
 494              	.LCFI20:
 495              		.cfi_def_cfa_offset 16
 496 0154 00AF     		add	r7, sp, #0
 497              	.LCFI21:
 498              		.cfi_def_cfa_register 7
 317:.\Generated_Source\PSoC4/cyfitter_cfg.c **** 	/* Disable interrupts by default. Let user enable if/when they want. */
 318:.\Generated_Source\PSoC4/cyfitter_cfg.c **** 	CyGlobalIntDisable;
 499              		.loc 1 318 0
 500              	@ 318 ".\Generated_Source\PSoC4\cyfitter_cfg.c" 1
 501 0156 72B6     		CPSID   i
 502              	@ 0 "" 2
 503              		.code	16
 504              	.LBB3:
 319:.\Generated_Source\PSoC4/cyfitter_cfg.c **** 
 320:.\Generated_Source\PSoC4/cyfitter_cfg.c **** 	{
 321:.\Generated_Source\PSoC4/cyfitter_cfg.c **** 		static const uint32 CYCODE cy_cfg_addr_table[] = {
 322:.\Generated_Source\PSoC4/cyfitter_cfg.c **** 			0x400F0002u, /* Base address: 0x400F0000 Count: 2 */
 323:.\Generated_Source\PSoC4/cyfitter_cfg.c **** 			0x400F3048u, /* Base address: 0x400F3000 Count: 72 */
 324:.\Generated_Source\PSoC4/cyfitter_cfg.c **** 			0x400F312Cu, /* Base address: 0x400F3100 Count: 44 */
 325:.\Generated_Source\PSoC4/cyfitter_cfg.c **** 			0x400F323Du, /* Base address: 0x400F3200 Count: 61 */
 326:.\Generated_Source\PSoC4/cyfitter_cfg.c **** 			0x400F3325u, /* Base address: 0x400F3300 Count: 37 */
 327:.\Generated_Source\PSoC4/cyfitter_cfg.c **** 			0x400F4010u, /* Base address: 0x400F4000 Count: 16 */
 328:.\Generated_Source\PSoC4/cyfitter_cfg.c **** 			0x400F410Au, /* Base address: 0x400F4100 Count: 10 */
 329:.\Generated_Source\PSoC4/cyfitter_cfg.c **** 			0x400F6002u, /* Base address: 0x400F6000 Count: 2 */
 330:.\Generated_Source\PSoC4/cyfitter_cfg.c **** 		};
 331:.\Generated_Source\PSoC4/cyfitter_cfg.c **** 
 332:.\Generated_Source\PSoC4/cyfitter_cfg.c **** 		static const cy_cfg_addrvalue_t CYCODE cy_cfg_data_table[] = {
 333:.\Generated_Source\PSoC4/cyfitter_cfg.c **** 			{0x71u, 0x03u},
 334:.\Generated_Source\PSoC4/cyfitter_cfg.c **** 			{0x81u, 0x67u},
 335:.\Generated_Source\PSoC4/cyfitter_cfg.c **** 			{0x40u, 0x14u},
 336:.\Generated_Source\PSoC4/cyfitter_cfg.c **** 			{0x41u, 0x06u},
 337:.\Generated_Source\PSoC4/cyfitter_cfg.c **** 			{0x49u, 0xFFu},
 338:.\Generated_Source\PSoC4/cyfitter_cfg.c **** 			{0x4Au, 0xFFu},
 339:.\Generated_Source\PSoC4/cyfitter_cfg.c **** 			{0x4Bu, 0xFFu},
 340:.\Generated_Source\PSoC4/cyfitter_cfg.c **** 			{0x4Du, 0xA0u},
 341:.\Generated_Source\PSoC4/cyfitter_cfg.c **** 			{0x4Fu, 0x01u},
 342:.\Generated_Source\PSoC4/cyfitter_cfg.c **** 			{0x50u, 0x18u},
 343:.\Generated_Source\PSoC4/cyfitter_cfg.c **** 			{0x5Au, 0x04u},
 344:.\Generated_Source\PSoC4/cyfitter_cfg.c **** 			{0x5Fu, 0x01u},
 345:.\Generated_Source\PSoC4/cyfitter_cfg.c **** 			{0x60u, 0x40u},
ARM GAS  F:\UTILIS~1\demasson\AppData\Local\Temp\cctFxQuy.s 			page 16


 346:.\Generated_Source\PSoC4/cyfitter_cfg.c **** 			{0x62u, 0x80u},
 347:.\Generated_Source\PSoC4/cyfitter_cfg.c **** 			{0x64u, 0x40u},
 348:.\Generated_Source\PSoC4/cyfitter_cfg.c **** 			{0x65u, 0x40u},
 349:.\Generated_Source\PSoC4/cyfitter_cfg.c **** 			{0x66u, 0x80u},
 350:.\Generated_Source\PSoC4/cyfitter_cfg.c **** 			{0x68u, 0x40u},
 351:.\Generated_Source\PSoC4/cyfitter_cfg.c **** 			{0x6Au, 0x50u},
 352:.\Generated_Source\PSoC4/cyfitter_cfg.c **** 			{0x6Bu, 0xA8u},
 353:.\Generated_Source\PSoC4/cyfitter_cfg.c **** 			{0x6Cu, 0x40u},
 354:.\Generated_Source\PSoC4/cyfitter_cfg.c **** 			{0x6Du, 0x20u},
 355:.\Generated_Source\PSoC4/cyfitter_cfg.c **** 			{0x6Eu, 0x50u},
 356:.\Generated_Source\PSoC4/cyfitter_cfg.c **** 			{0x6Fu, 0xA8u},
 357:.\Generated_Source\PSoC4/cyfitter_cfg.c **** 			{0x81u, 0x01u},
 358:.\Generated_Source\PSoC4/cyfitter_cfg.c **** 			{0x82u, 0x0Cu},
 359:.\Generated_Source\PSoC4/cyfitter_cfg.c **** 			{0x86u, 0x02u},
 360:.\Generated_Source\PSoC4/cyfitter_cfg.c **** 			{0x8Cu, 0x02u},
 361:.\Generated_Source\PSoC4/cyfitter_cfg.c **** 			{0x94u, 0x08u},
 362:.\Generated_Source\PSoC4/cyfitter_cfg.c **** 			{0x97u, 0x02u},
 363:.\Generated_Source\PSoC4/cyfitter_cfg.c **** 			{0xA4u, 0x01u},
 364:.\Generated_Source\PSoC4/cyfitter_cfg.c **** 			{0xA5u, 0x01u},
 365:.\Generated_Source\PSoC4/cyfitter_cfg.c **** 			{0xA6u, 0x02u},
 366:.\Generated_Source\PSoC4/cyfitter_cfg.c **** 			{0xB0u, 0x01u},
 367:.\Generated_Source\PSoC4/cyfitter_cfg.c **** 			{0xB2u, 0x04u},
 368:.\Generated_Source\PSoC4/cyfitter_cfg.c **** 			{0xB4u, 0x08u},
 369:.\Generated_Source\PSoC4/cyfitter_cfg.c **** 			{0xB5u, 0x01u},
 370:.\Generated_Source\PSoC4/cyfitter_cfg.c **** 			{0xB6u, 0x02u},
 371:.\Generated_Source\PSoC4/cyfitter_cfg.c **** 			{0xB7u, 0x02u},
 372:.\Generated_Source\PSoC4/cyfitter_cfg.c **** 			{0xB9u, 0x28u},
 373:.\Generated_Source\PSoC4/cyfitter_cfg.c **** 			{0xBEu, 0x51u},
 374:.\Generated_Source\PSoC4/cyfitter_cfg.c **** 			{0xBFu, 0x14u},
 375:.\Generated_Source\PSoC4/cyfitter_cfg.c **** 			{0xC0u, 0x14u},
 376:.\Generated_Source\PSoC4/cyfitter_cfg.c **** 			{0xC1u, 0x06u},
 377:.\Generated_Source\PSoC4/cyfitter_cfg.c **** 			{0xC5u, 0x4Cu},
 378:.\Generated_Source\PSoC4/cyfitter_cfg.c **** 			{0xC6u, 0x20u},
 379:.\Generated_Source\PSoC4/cyfitter_cfg.c **** 			{0xC7u, 0x5Eu},
 380:.\Generated_Source\PSoC4/cyfitter_cfg.c **** 			{0xC8u, 0x3Fu},
 381:.\Generated_Source\PSoC4/cyfitter_cfg.c **** 			{0xC9u, 0xFFu},
 382:.\Generated_Source\PSoC4/cyfitter_cfg.c **** 			{0xCAu, 0xFFu},
 383:.\Generated_Source\PSoC4/cyfitter_cfg.c **** 			{0xCBu, 0xFFu},
 384:.\Generated_Source\PSoC4/cyfitter_cfg.c **** 			{0xCDu, 0xAFu},
 385:.\Generated_Source\PSoC4/cyfitter_cfg.c **** 			{0xCEu, 0x07u},
 386:.\Generated_Source\PSoC4/cyfitter_cfg.c **** 			{0xCFu, 0x01u},
 387:.\Generated_Source\PSoC4/cyfitter_cfg.c **** 			{0xD0u, 0x18u},
 388:.\Generated_Source\PSoC4/cyfitter_cfg.c **** 			{0xD4u, 0x07u},
 389:.\Generated_Source\PSoC4/cyfitter_cfg.c **** 			{0xD8u, 0x04u},
 390:.\Generated_Source\PSoC4/cyfitter_cfg.c **** 			{0xD9u, 0x04u},
 391:.\Generated_Source\PSoC4/cyfitter_cfg.c **** 			{0xDAu, 0x04u},
 392:.\Generated_Source\PSoC4/cyfitter_cfg.c **** 			{0xDBu, 0x04u},
 393:.\Generated_Source\PSoC4/cyfitter_cfg.c **** 			{0xDEu, 0x80u},
 394:.\Generated_Source\PSoC4/cyfitter_cfg.c **** 			{0xDFu, 0x05u},
 395:.\Generated_Source\PSoC4/cyfitter_cfg.c **** 			{0xE0u, 0x40u},
 396:.\Generated_Source\PSoC4/cyfitter_cfg.c **** 			{0xE2u, 0x80u},
 397:.\Generated_Source\PSoC4/cyfitter_cfg.c **** 			{0xE4u, 0x40u},
 398:.\Generated_Source\PSoC4/cyfitter_cfg.c **** 			{0xE5u, 0x40u},
 399:.\Generated_Source\PSoC4/cyfitter_cfg.c **** 			{0xE6u, 0x80u},
 400:.\Generated_Source\PSoC4/cyfitter_cfg.c **** 			{0xE8u, 0x40u},
 401:.\Generated_Source\PSoC4/cyfitter_cfg.c **** 			{0xEAu, 0x50u},
 402:.\Generated_Source\PSoC4/cyfitter_cfg.c **** 			{0xEBu, 0xA8u},
ARM GAS  F:\UTILIS~1\demasson\AppData\Local\Temp\cctFxQuy.s 			page 17


 403:.\Generated_Source\PSoC4/cyfitter_cfg.c **** 			{0xECu, 0x40u},
 404:.\Generated_Source\PSoC4/cyfitter_cfg.c **** 			{0xEDu, 0x20u},
 405:.\Generated_Source\PSoC4/cyfitter_cfg.c **** 			{0xEEu, 0x50u},
 406:.\Generated_Source\PSoC4/cyfitter_cfg.c **** 			{0xEFu, 0xA8u},
 407:.\Generated_Source\PSoC4/cyfitter_cfg.c **** 			{0x05u, 0x04u},
 408:.\Generated_Source\PSoC4/cyfitter_cfg.c **** 			{0x06u, 0x80u},
 409:.\Generated_Source\PSoC4/cyfitter_cfg.c **** 			{0x07u, 0x02u},
 410:.\Generated_Source\PSoC4/cyfitter_cfg.c **** 			{0x0Du, 0x08u},
 411:.\Generated_Source\PSoC4/cyfitter_cfg.c **** 			{0x17u, 0x04u},
 412:.\Generated_Source\PSoC4/cyfitter_cfg.c **** 			{0x1Cu, 0x41u},
 413:.\Generated_Source\PSoC4/cyfitter_cfg.c **** 			{0x1Du, 0x8Au},
 414:.\Generated_Source\PSoC4/cyfitter_cfg.c **** 			{0x1Eu, 0x08u},
 415:.\Generated_Source\PSoC4/cyfitter_cfg.c **** 			{0x26u, 0x18u},
 416:.\Generated_Source\PSoC4/cyfitter_cfg.c **** 			{0x27u, 0x02u},
 417:.\Generated_Source\PSoC4/cyfitter_cfg.c **** 			{0x2Fu, 0x10u},
 418:.\Generated_Source\PSoC4/cyfitter_cfg.c **** 			{0x35u, 0x04u},
 419:.\Generated_Source\PSoC4/cyfitter_cfg.c **** 			{0x3Du, 0x02u},
 420:.\Generated_Source\PSoC4/cyfitter_cfg.c **** 			{0x40u, 0x41u},
 421:.\Generated_Source\PSoC4/cyfitter_cfg.c **** 			{0x45u, 0x82u},
 422:.\Generated_Source\PSoC4/cyfitter_cfg.c **** 			{0x4Au, 0x08u},
 423:.\Generated_Source\PSoC4/cyfitter_cfg.c **** 			{0x4Du, 0x02u},
 424:.\Generated_Source\PSoC4/cyfitter_cfg.c **** 			{0x4Eu, 0x08u},
 425:.\Generated_Source\PSoC4/cyfitter_cfg.c **** 			{0x4Fu, 0x04u},
 426:.\Generated_Source\PSoC4/cyfitter_cfg.c **** 			{0x56u, 0x8Au},
 427:.\Generated_Source\PSoC4/cyfitter_cfg.c **** 			{0x57u, 0x10u},
 428:.\Generated_Source\PSoC4/cyfitter_cfg.c **** 			{0x5Eu, 0x48u},
 429:.\Generated_Source\PSoC4/cyfitter_cfg.c **** 			{0x5Fu, 0x10u},
 430:.\Generated_Source\PSoC4/cyfitter_cfg.c **** 			{0x63u, 0x30u},
 431:.\Generated_Source\PSoC4/cyfitter_cfg.c **** 			{0x66u, 0x08u},
 432:.\Generated_Source\PSoC4/cyfitter_cfg.c **** 			{0x67u, 0x04u},
 433:.\Generated_Source\PSoC4/cyfitter_cfg.c **** 			{0x6Fu, 0x0Eu},
 434:.\Generated_Source\PSoC4/cyfitter_cfg.c **** 			{0x7Fu, 0x08u},
 435:.\Generated_Source\PSoC4/cyfitter_cfg.c **** 			{0x81u, 0x04u},
 436:.\Generated_Source\PSoC4/cyfitter_cfg.c **** 			{0x8Au, 0x10u},
 437:.\Generated_Source\PSoC4/cyfitter_cfg.c **** 			{0x8Du, 0x01u},
 438:.\Generated_Source\PSoC4/cyfitter_cfg.c **** 			{0xC0u, 0xB0u},
 439:.\Generated_Source\PSoC4/cyfitter_cfg.c **** 			{0xC2u, 0x20u},
 440:.\Generated_Source\PSoC4/cyfitter_cfg.c **** 			{0xC4u, 0x20u},
 441:.\Generated_Source\PSoC4/cyfitter_cfg.c **** 			{0xCAu, 0x40u},
 442:.\Generated_Source\PSoC4/cyfitter_cfg.c **** 			{0xCCu, 0x40u},
 443:.\Generated_Source\PSoC4/cyfitter_cfg.c **** 			{0xCEu, 0x80u},
 444:.\Generated_Source\PSoC4/cyfitter_cfg.c **** 			{0xD0u, 0x99u},
 445:.\Generated_Source\PSoC4/cyfitter_cfg.c **** 			{0xD2u, 0x24u},
 446:.\Generated_Source\PSoC4/cyfitter_cfg.c **** 			{0xD6u, 0x70u},
 447:.\Generated_Source\PSoC4/cyfitter_cfg.c **** 			{0xD8u, 0x60u},
 448:.\Generated_Source\PSoC4/cyfitter_cfg.c **** 			{0xDEu, 0x20u},
 449:.\Generated_Source\PSoC4/cyfitter_cfg.c **** 			{0xE0u, 0x10u},
 450:.\Generated_Source\PSoC4/cyfitter_cfg.c **** 			{0xE2u, 0x80u},
 451:.\Generated_Source\PSoC4/cyfitter_cfg.c **** 			{0x00u, 0x02u},
 452:.\Generated_Source\PSoC4/cyfitter_cfg.c **** 			{0x01u, 0x01u},
 453:.\Generated_Source\PSoC4/cyfitter_cfg.c **** 			{0x0Cu, 0x02u},
 454:.\Generated_Source\PSoC4/cyfitter_cfg.c **** 			{0x11u, 0x01u},
 455:.\Generated_Source\PSoC4/cyfitter_cfg.c **** 			{0x17u, 0x02u},
 456:.\Generated_Source\PSoC4/cyfitter_cfg.c **** 			{0x1Eu, 0x01u},
 457:.\Generated_Source\PSoC4/cyfitter_cfg.c **** 			{0x1Fu, 0x02u},
 458:.\Generated_Source\PSoC4/cyfitter_cfg.c **** 			{0x20u, 0x02u},
 459:.\Generated_Source\PSoC4/cyfitter_cfg.c **** 			{0x26u, 0x01u},
ARM GAS  F:\UTILIS~1\demasson\AppData\Local\Temp\cctFxQuy.s 			page 18


 460:.\Generated_Source\PSoC4/cyfitter_cfg.c **** 			{0x2Eu, 0x01u},
 461:.\Generated_Source\PSoC4/cyfitter_cfg.c **** 			{0x30u, 0x02u},
 462:.\Generated_Source\PSoC4/cyfitter_cfg.c **** 			{0x32u, 0x01u},
 463:.\Generated_Source\PSoC4/cyfitter_cfg.c **** 			{0x33u, 0x02u},
 464:.\Generated_Source\PSoC4/cyfitter_cfg.c **** 			{0x37u, 0x01u},
 465:.\Generated_Source\PSoC4/cyfitter_cfg.c **** 			{0x3Eu, 0x01u},
 466:.\Generated_Source\PSoC4/cyfitter_cfg.c **** 			{0x40u, 0x20u},
 467:.\Generated_Source\PSoC4/cyfitter_cfg.c **** 			{0x41u, 0x05u},
 468:.\Generated_Source\PSoC4/cyfitter_cfg.c **** 			{0x49u, 0xFFu},
 469:.\Generated_Source\PSoC4/cyfitter_cfg.c **** 			{0x4Au, 0xFFu},
 470:.\Generated_Source\PSoC4/cyfitter_cfg.c **** 			{0x4Bu, 0xFFu},
 471:.\Generated_Source\PSoC4/cyfitter_cfg.c **** 			{0x4Du, 0xA0u},
 472:.\Generated_Source\PSoC4/cyfitter_cfg.c **** 			{0x4Fu, 0x04u},
 473:.\Generated_Source\PSoC4/cyfitter_cfg.c **** 			{0x50u, 0x18u},
 474:.\Generated_Source\PSoC4/cyfitter_cfg.c **** 			{0x52u, 0x80u},
 475:.\Generated_Source\PSoC4/cyfitter_cfg.c **** 			{0x58u, 0x04u},
 476:.\Generated_Source\PSoC4/cyfitter_cfg.c **** 			{0x59u, 0x04u},
 477:.\Generated_Source\PSoC4/cyfitter_cfg.c **** 			{0x5Au, 0x04u},
 478:.\Generated_Source\PSoC4/cyfitter_cfg.c **** 			{0x5Bu, 0x04u},
 479:.\Generated_Source\PSoC4/cyfitter_cfg.c **** 			{0x5Fu, 0x01u},
 480:.\Generated_Source\PSoC4/cyfitter_cfg.c **** 			{0x60u, 0x40u},
 481:.\Generated_Source\PSoC4/cyfitter_cfg.c **** 			{0x62u, 0xC0u},
 482:.\Generated_Source\PSoC4/cyfitter_cfg.c **** 			{0x64u, 0x40u},
 483:.\Generated_Source\PSoC4/cyfitter_cfg.c **** 			{0x65u, 0x40u},
 484:.\Generated_Source\PSoC4/cyfitter_cfg.c **** 			{0x66u, 0xC0u},
 485:.\Generated_Source\PSoC4/cyfitter_cfg.c **** 			{0x68u, 0xC0u},
 486:.\Generated_Source\PSoC4/cyfitter_cfg.c **** 			{0x6Au, 0xC0u},
 487:.\Generated_Source\PSoC4/cyfitter_cfg.c **** 			{0x6Cu, 0xC0u},
 488:.\Generated_Source\PSoC4/cyfitter_cfg.c **** 			{0x6Eu, 0xC0u},
 489:.\Generated_Source\PSoC4/cyfitter_cfg.c **** 			{0xC0u, 0x30u},
 490:.\Generated_Source\PSoC4/cyfitter_cfg.c **** 			{0xC1u, 0x05u},
 491:.\Generated_Source\PSoC4/cyfitter_cfg.c **** 			{0xC6u, 0x01u},
 492:.\Generated_Source\PSoC4/cyfitter_cfg.c **** 			{0xC7u, 0x20u},
 493:.\Generated_Source\PSoC4/cyfitter_cfg.c **** 			{0xC8u, 0x24u},
 494:.\Generated_Source\PSoC4/cyfitter_cfg.c **** 			{0xC9u, 0xFFu},
 495:.\Generated_Source\PSoC4/cyfitter_cfg.c **** 			{0xCAu, 0xFFu},
 496:.\Generated_Source\PSoC4/cyfitter_cfg.c **** 			{0xCBu, 0xFFu},
 497:.\Generated_Source\PSoC4/cyfitter_cfg.c **** 			{0xCDu, 0xAFu},
 498:.\Generated_Source\PSoC4/cyfitter_cfg.c **** 			{0xCEu, 0x0Fu},
 499:.\Generated_Source\PSoC4/cyfitter_cfg.c **** 			{0xCFu, 0x04u},
 500:.\Generated_Source\PSoC4/cyfitter_cfg.c **** 			{0xD0u, 0x18u},
 501:.\Generated_Source\PSoC4/cyfitter_cfg.c **** 			{0xDAu, 0x04u},
 502:.\Generated_Source\PSoC4/cyfitter_cfg.c **** 			{0xDFu, 0x01u},
 503:.\Generated_Source\PSoC4/cyfitter_cfg.c **** 			{0xE0u, 0x40u},
 504:.\Generated_Source\PSoC4/cyfitter_cfg.c **** 			{0xE2u, 0xC0u},
 505:.\Generated_Source\PSoC4/cyfitter_cfg.c **** 			{0xE4u, 0x40u},
 506:.\Generated_Source\PSoC4/cyfitter_cfg.c **** 			{0xE5u, 0x40u},
 507:.\Generated_Source\PSoC4/cyfitter_cfg.c **** 			{0xE6u, 0xC0u},
 508:.\Generated_Source\PSoC4/cyfitter_cfg.c **** 			{0xE8u, 0xC0u},
 509:.\Generated_Source\PSoC4/cyfitter_cfg.c **** 			{0xEAu, 0xC0u},
 510:.\Generated_Source\PSoC4/cyfitter_cfg.c **** 			{0xECu, 0xC0u},
 511:.\Generated_Source\PSoC4/cyfitter_cfg.c **** 			{0xEEu, 0xC0u},
 512:.\Generated_Source\PSoC4/cyfitter_cfg.c **** 			{0x05u, 0x02u},
 513:.\Generated_Source\PSoC4/cyfitter_cfg.c **** 			{0x06u, 0x02u},
 514:.\Generated_Source\PSoC4/cyfitter_cfg.c **** 			{0x0Du, 0x80u},
 515:.\Generated_Source\PSoC4/cyfitter_cfg.c **** 			{0x17u, 0x46u},
 516:.\Generated_Source\PSoC4/cyfitter_cfg.c **** 			{0x1Du, 0x04u},
ARM GAS  F:\UTILIS~1\demasson\AppData\Local\Temp\cctFxQuy.s 			page 19


 517:.\Generated_Source\PSoC4/cyfitter_cfg.c **** 			{0x1Eu, 0x40u},
 518:.\Generated_Source\PSoC4/cyfitter_cfg.c **** 			{0x24u, 0x10u},
 519:.\Generated_Source\PSoC4/cyfitter_cfg.c **** 			{0x27u, 0x22u},
 520:.\Generated_Source\PSoC4/cyfitter_cfg.c **** 			{0x35u, 0x02u},
 521:.\Generated_Source\PSoC4/cyfitter_cfg.c **** 			{0x37u, 0x44u},
 522:.\Generated_Source\PSoC4/cyfitter_cfg.c **** 			{0x3Eu, 0x02u},
 523:.\Generated_Source\PSoC4/cyfitter_cfg.c **** 			{0x40u, 0x10u},
 524:.\Generated_Source\PSoC4/cyfitter_cfg.c **** 			{0x47u, 0x20u},
 525:.\Generated_Source\PSoC4/cyfitter_cfg.c **** 			{0x48u, 0x02u},
 526:.\Generated_Source\PSoC4/cyfitter_cfg.c **** 			{0x4Eu, 0x02u},
 527:.\Generated_Source\PSoC4/cyfitter_cfg.c **** 			{0x50u, 0x02u},
 528:.\Generated_Source\PSoC4/cyfitter_cfg.c **** 			{0x51u, 0x80u},
 529:.\Generated_Source\PSoC4/cyfitter_cfg.c **** 			{0x52u, 0x02u},
 530:.\Generated_Source\PSoC4/cyfitter_cfg.c **** 			{0x77u, 0x40u},
 531:.\Generated_Source\PSoC4/cyfitter_cfg.c **** 			{0x96u, 0x40u},
 532:.\Generated_Source\PSoC4/cyfitter_cfg.c **** 			{0x99u, 0x02u},
 533:.\Generated_Source\PSoC4/cyfitter_cfg.c **** 			{0x9Au, 0x02u},
 534:.\Generated_Source\PSoC4/cyfitter_cfg.c **** 			{0x9Bu, 0x04u},
 535:.\Generated_Source\PSoC4/cyfitter_cfg.c **** 			{0x9Du, 0x04u},
 536:.\Generated_Source\PSoC4/cyfitter_cfg.c **** 			{0xA9u, 0x02u},
 537:.\Generated_Source\PSoC4/cyfitter_cfg.c **** 			{0xAFu, 0x10u},
 538:.\Generated_Source\PSoC4/cyfitter_cfg.c **** 			{0xB2u, 0x08u},
 539:.\Generated_Source\PSoC4/cyfitter_cfg.c **** 			{0xB7u, 0x0Au},
 540:.\Generated_Source\PSoC4/cyfitter_cfg.c **** 			{0xC0u, 0x90u},
 541:.\Generated_Source\PSoC4/cyfitter_cfg.c **** 			{0xC2u, 0x80u},
 542:.\Generated_Source\PSoC4/cyfitter_cfg.c **** 			{0xC4u, 0xB0u},
 543:.\Generated_Source\PSoC4/cyfitter_cfg.c **** 			{0xCCu, 0xD0u},
 544:.\Generated_Source\PSoC4/cyfitter_cfg.c **** 			{0xCEu, 0x80u},
 545:.\Generated_Source\PSoC4/cyfitter_cfg.c **** 			{0xD0u, 0x22u},
 546:.\Generated_Source\PSoC4/cyfitter_cfg.c **** 			{0xD2u, 0x18u},
 547:.\Generated_Source\PSoC4/cyfitter_cfg.c **** 			{0xEAu, 0x10u},
 548:.\Generated_Source\PSoC4/cyfitter_cfg.c **** 			{0xEEu, 0xC0u},
 549:.\Generated_Source\PSoC4/cyfitter_cfg.c **** 			{0x0Bu, 0x40u},
 550:.\Generated_Source\PSoC4/cyfitter_cfg.c **** 			{0x0Eu, 0x02u},
 551:.\Generated_Source\PSoC4/cyfitter_cfg.c **** 			{0x50u, 0x04u},
 552:.\Generated_Source\PSoC4/cyfitter_cfg.c **** 			{0x54u, 0x02u},
 553:.\Generated_Source\PSoC4/cyfitter_cfg.c **** 			{0x56u, 0x20u},
 554:.\Generated_Source\PSoC4/cyfitter_cfg.c **** 			{0x58u, 0x40u},
 555:.\Generated_Source\PSoC4/cyfitter_cfg.c **** 			{0x5Cu, 0x01u},
 556:.\Generated_Source\PSoC4/cyfitter_cfg.c **** 			{0x66u, 0x08u},
 557:.\Generated_Source\PSoC4/cyfitter_cfg.c **** 			{0x82u, 0x08u},
 558:.\Generated_Source\PSoC4/cyfitter_cfg.c **** 			{0x88u, 0x40u},
 559:.\Generated_Source\PSoC4/cyfitter_cfg.c **** 			{0x8Eu, 0x01u},
 560:.\Generated_Source\PSoC4/cyfitter_cfg.c **** 			{0xC2u, 0x90u},
 561:.\Generated_Source\PSoC4/cyfitter_cfg.c **** 			{0xD4u, 0xE0u},
 562:.\Generated_Source\PSoC4/cyfitter_cfg.c **** 			{0xD6u, 0xA0u},
 563:.\Generated_Source\PSoC4/cyfitter_cfg.c **** 			{0xD8u, 0x80u},
 564:.\Generated_Source\PSoC4/cyfitter_cfg.c **** 			{0xE6u, 0x80u},
 565:.\Generated_Source\PSoC4/cyfitter_cfg.c **** 			{0x54u, 0x02u},
 566:.\Generated_Source\PSoC4/cyfitter_cfg.c **** 			{0xA0u, 0x02u},
 567:.\Generated_Source\PSoC4/cyfitter_cfg.c **** 			{0xA8u, 0x01u},
 568:.\Generated_Source\PSoC4/cyfitter_cfg.c **** 			{0xAFu, 0x40u},
 569:.\Generated_Source\PSoC4/cyfitter_cfg.c **** 			{0xB0u, 0x02u},
 570:.\Generated_Source\PSoC4/cyfitter_cfg.c **** 			{0xB4u, 0x04u},
 571:.\Generated_Source\PSoC4/cyfitter_cfg.c **** 			{0xB6u, 0x20u},
 572:.\Generated_Source\PSoC4/cyfitter_cfg.c **** 			{0xD6u, 0x20u},
 573:.\Generated_Source\PSoC4/cyfitter_cfg.c **** 			{0xEAu, 0x80u},
ARM GAS  F:\UTILIS~1\demasson\AppData\Local\Temp\cctFxQuy.s 			page 20


 574:.\Generated_Source\PSoC4/cyfitter_cfg.c **** 			{0xECu, 0x40u},
 575:.\Generated_Source\PSoC4/cyfitter_cfg.c **** 			{0x10u, 0x01u},
 576:.\Generated_Source\PSoC4/cyfitter_cfg.c **** 			{0x11u, 0x01u},
 577:.\Generated_Source\PSoC4/cyfitter_cfg.c **** 		};
 578:.\Generated_Source\PSoC4/cyfitter_cfg.c **** 
 579:.\Generated_Source\PSoC4/cyfitter_cfg.c **** 
 580:.\Generated_Source\PSoC4/cyfitter_cfg.c **** 
 581:.\Generated_Source\PSoC4/cyfitter_cfg.c **** 		CYPACKED typedef struct {
 582:.\Generated_Source\PSoC4/cyfitter_cfg.c **** 			void CYFAR *address;
 583:.\Generated_Source\PSoC4/cyfitter_cfg.c **** 			uint16 size;
 584:.\Generated_Source\PSoC4/cyfitter_cfg.c **** 		} CYPACKED_ATTR cfg_memset_t;
 585:.\Generated_Source\PSoC4/cyfitter_cfg.c **** 
 586:.\Generated_Source\PSoC4/cyfitter_cfg.c **** 		static const cfg_memset_t CYCODE cfg_memset_list [] = {
 587:.\Generated_Source\PSoC4/cyfitter_cfg.c **** 			/* address, size */
 588:.\Generated_Source\PSoC4/cyfitter_cfg.c **** 			{(void CYFAR *)(CYDEV_UDB_P0_U0_BASE), 1024u},
 589:.\Generated_Source\PSoC4/cyfitter_cfg.c **** 			{(void CYFAR *)(CYDEV_UDB_DSI0_BASE), 1024u},
 590:.\Generated_Source\PSoC4/cyfitter_cfg.c **** 		};
 591:.\Generated_Source\PSoC4/cyfitter_cfg.c **** 
 592:.\Generated_Source\PSoC4/cyfitter_cfg.c **** 		uint8 CYDATA i;
 593:.\Generated_Source\PSoC4/cyfitter_cfg.c **** 
 594:.\Generated_Source\PSoC4/cyfitter_cfg.c **** 		/* Zero out critical memory blocks before beginning configuration */
 595:.\Generated_Source\PSoC4/cyfitter_cfg.c **** 		for (i = 0u; i < (sizeof(cfg_memset_list)/sizeof(cfg_memset_list[0])); i++)
 505              		.loc 1 595 0
 506 0158 FB1D     		add	r3, r7, #7
 507 015a 0022     		mov	r2, #0
 508 015c 1A70     		strb	r2, [r3]
 509 015e 23E0     		b	.L20
 510              	.L21:
 511              	.LBB4:
 596:.\Generated_Source\PSoC4/cyfitter_cfg.c **** 		{
 597:.\Generated_Source\PSoC4/cyfitter_cfg.c **** 			const cfg_memset_t CYCODE * CYDATA ms = &cfg_memset_list[i];
 512              		.loc 1 597 0 discriminator 2
 513 0160 FB1D     		add	r3, r7, #7
 514 0162 1A78     		ldrb	r2, [r3]
 515 0164 131C     		mov	r3, r2
 516 0166 5B00     		lsl	r3, r3, #1
 517 0168 9B18     		add	r3, r3, r2
 518 016a 5B00     		lsl	r3, r3, #1
 519 016c 404A     		ldr	r2, .L22
 520 016e 9B18     		add	r3, r3, r2
 521 0170 3B60     		str	r3, [r7]
 598:.\Generated_Source\PSoC4/cyfitter_cfg.c **** 			CYMEMZERO(ms->address, (uint32)(ms->size));
 522              		.loc 1 598 0 discriminator 2
 523 0172 3B68     		ldr	r3, [r7]
 524 0174 1A78     		ldrb	r2, [r3]
 525 0176 5978     		ldrb	r1, [r3, #1]
 526 0178 0902     		lsl	r1, r1, #8
 527 017a 0A43     		orr	r2, r1
 528 017c 9978     		ldrb	r1, [r3, #2]
 529 017e 0904     		lsl	r1, r1, #16
 530 0180 0A43     		orr	r2, r1
 531 0182 DB78     		ldrb	r3, [r3, #3]
 532 0184 1B06     		lsl	r3, r3, #24
 533 0186 1343     		orr	r3, r2
 534 0188 1A1C     		mov	r2, r3
 535 018a 3B68     		ldr	r3, [r7]
 536 018c 1979     		ldrb	r1, [r3, #4]
ARM GAS  F:\UTILIS~1\demasson\AppData\Local\Temp\cctFxQuy.s 			page 21


 537 018e 5B79     		ldrb	r3, [r3, #5]
 538 0190 1B02     		lsl	r3, r3, #8
 539 0192 0B43     		orr	r3, r1
 540 0194 9BB2     		uxth	r3, r3
 541 0196 101C     		mov	r0, r2
 542 0198 191C     		mov	r1, r3
 543 019a FFF7FEFF 		bl	CYMEMZERO
 544              	.LBE4:
 595:.\Generated_Source\PSoC4/cyfitter_cfg.c **** 		for (i = 0u; i < (sizeof(cfg_memset_list)/sizeof(cfg_memset_list[0])); i++)
 545              		.loc 1 595 0 discriminator 2
 546 019e FB1D     		add	r3, r7, #7
 547 01a0 FA1D     		add	r2, r7, #7
 548 01a2 1278     		ldrb	r2, [r2]
 549 01a4 0132     		add	r2, r2, #1
 550 01a6 1A70     		strb	r2, [r3]
 551              	.L20:
 595:.\Generated_Source\PSoC4/cyfitter_cfg.c **** 		for (i = 0u; i < (sizeof(cfg_memset_list)/sizeof(cfg_memset_list[0])); i++)
 552              		.loc 1 595 0 is_stmt 0 discriminator 1
 553 01a8 FB1D     		add	r3, r7, #7
 554 01aa 1B78     		ldrb	r3, [r3]
 555 01ac 012B     		cmp	r3, #1
 556 01ae D7D9     		bls	.L21
 599:.\Generated_Source\PSoC4/cyfitter_cfg.c **** 		}
 600:.\Generated_Source\PSoC4/cyfitter_cfg.c **** 
 601:.\Generated_Source\PSoC4/cyfitter_cfg.c **** 		cfg_write_bytes32(cy_cfg_addr_table, cy_cfg_data_table);
 557              		.loc 1 601 0 is_stmt 1
 558 01b0 304A     		ldr	r2, .L22+4
 559 01b2 314B     		ldr	r3, .L22+8
 560 01b4 101C     		mov	r0, r2
 561 01b6 191C     		mov	r1, r3
 562 01b8 FFF7FEFF 		bl	cfg_write_bytes32
 602:.\Generated_Source\PSoC4/cyfitter_cfg.c **** 
 603:.\Generated_Source\PSoC4/cyfitter_cfg.c **** 		/* Perform normal device configuration. Order is not critical for these items. */
 604:.\Generated_Source\PSoC4/cyfitter_cfg.c **** 		CY_SET_XTND_REG16((void CYFAR *)(CYREG_UDB_BCTL0_DRV), 0x0100u);
 563              		.loc 1 604 0
 564 01bc 2F4B     		ldr	r3, .L22+12
 565 01be 8022     		mov	r2, #128
 566 01c0 5200     		lsl	r2, r2, #1
 567 01c2 1A80     		strh	r2, [r3]
 605:.\Generated_Source\PSoC4/cyfitter_cfg.c **** 		CY_SET_XTND_REG8((void CYFAR *)(CYREG_UDB_BCTL0_DRV + 0x2u), 0x01u);
 568              		.loc 1 605 0
 569 01c4 2E4B     		ldr	r3, .L22+16
 570 01c6 0122     		mov	r2, #1
 571 01c8 1A70     		strb	r2, [r3]
 606:.\Generated_Source\PSoC4/cyfitter_cfg.c **** 
 607:.\Generated_Source\PSoC4/cyfitter_cfg.c **** 		/* HSIOM Starting address: CYDEV_HSIOM_BASE */
 608:.\Generated_Source\PSoC4/cyfitter_cfg.c **** 		CY_SET_XTND_REG32((void CYFAR *)(CYDEV_HSIOM_BASE), 0x03303333u);
 572              		.loc 1 608 0
 573 01ca 2E4B     		ldr	r3, .L22+20
 574 01cc 2E4A     		ldr	r2, .L22+24
 575 01ce 1A60     		str	r2, [r3]
 609:.\Generated_Source\PSoC4/cyfitter_cfg.c **** 		CY_SET_XTND_REG32((void CYFAR *)(CYREG_HSIOM_PORT_SEL1), 0x00000003u);
 576              		.loc 1 609 0
 577 01d0 2E4B     		ldr	r3, .L22+28
 578 01d2 0322     		mov	r2, #3
 579 01d4 1A60     		str	r2, [r3]
 610:.\Generated_Source\PSoC4/cyfitter_cfg.c **** 		CY_SET_XTND_REG32((void CYFAR *)(CYREG_HSIOM_PORT_SEL3), 0x0000EE00u);
ARM GAS  F:\UTILIS~1\demasson\AppData\Local\Temp\cctFxQuy.s 			page 22


 580              		.loc 1 610 0
 581 01d6 2E4B     		ldr	r3, .L22+32
 582 01d8 EE22     		mov	r2, #238
 583 01da 1202     		lsl	r2, r2, #8
 584 01dc 1A60     		str	r2, [r3]
 611:.\Generated_Source\PSoC4/cyfitter_cfg.c **** 		CY_SET_XTND_REG32((void CYFAR *)(CYREG_HSIOM_PORT_SEL4), 0x000000EEu);
 585              		.loc 1 611 0
 586 01de 2D4B     		ldr	r3, .L22+36
 587 01e0 EE22     		mov	r2, #238
 588 01e2 1A60     		str	r2, [r3]
 612:.\Generated_Source\PSoC4/cyfitter_cfg.c **** 
 613:.\Generated_Source\PSoC4/cyfitter_cfg.c **** 		/* IOPINS0_0 Starting address: CYDEV_PRT0_DR */
 614:.\Generated_Source\PSoC4/cyfitter_cfg.c **** 		CY_SET_XTND_REG32((void CYFAR *)(CYREG_PRT0_DR), 0x000000FFu);
 589              		.loc 1 614 0
 590 01e4 2C4B     		ldr	r3, .L22+40
 591 01e6 FF22     		mov	r2, #255
 592 01e8 1A60     		str	r2, [r3]
 615:.\Generated_Source\PSoC4/cyfitter_cfg.c **** 		CY_SET_XTND_REG32((void CYFAR *)(CYREG_PRT0_PC), 0x005B2DB6u);
 593              		.loc 1 615 0
 594 01ea 2C4B     		ldr	r3, .L22+44
 595 01ec 2C4A     		ldr	r2, .L22+48
 596 01ee 1A60     		str	r2, [r3]
 616:.\Generated_Source\PSoC4/cyfitter_cfg.c **** 
 617:.\Generated_Source\PSoC4/cyfitter_cfg.c **** 		/* IOPINS0_1 Starting address: CYDEV_PRT1_DR */
 618:.\Generated_Source\PSoC4/cyfitter_cfg.c **** 		CY_SET_XTND_REG32((void CYFAR *)(CYREG_PRT1_DR), 0x00000001u);
 597              		.loc 1 618 0
 598 01f0 2C4B     		ldr	r3, .L22+52
 599 01f2 0122     		mov	r2, #1
 600 01f4 1A60     		str	r2, [r3]
 619:.\Generated_Source\PSoC4/cyfitter_cfg.c **** 		CY_SET_XTND_REG32((void CYFAR *)(CYREG_PRT1_PC), 0x00000006u);
 601              		.loc 1 619 0
 602 01f6 2C4B     		ldr	r3, .L22+56
 603 01f8 0622     		mov	r2, #6
 604 01fa 1A60     		str	r2, [r3]
 620:.\Generated_Source\PSoC4/cyfitter_cfg.c **** 
 621:.\Generated_Source\PSoC4/cyfitter_cfg.c **** 		/* IOPINS0_3 Starting address: CYDEV_PRT3_DR */
 622:.\Generated_Source\PSoC4/cyfitter_cfg.c **** 		CY_SET_XTND_REG32((void CYFAR *)(CYREG_PRT3_PC), 0x00000D80u);
 605              		.loc 1 622 0
 606 01fc 2B4B     		ldr	r3, .L22+60
 607 01fe D822     		mov	r2, #216
 608 0200 1201     		lsl	r2, r2, #4
 609 0202 1A60     		str	r2, [r3]
 623:.\Generated_Source\PSoC4/cyfitter_cfg.c **** 
 624:.\Generated_Source\PSoC4/cyfitter_cfg.c **** 		/* IOPINS0_4 Starting address: CYDEV_PRT4_DR */
 625:.\Generated_Source\PSoC4/cyfitter_cfg.c **** 		CY_SET_XTND_REG32((void CYFAR *)(CYREG_PRT4_DR), 0x00000003u);
 610              		.loc 1 625 0
 611 0204 2A4B     		ldr	r3, .L22+64
 612 0206 0322     		mov	r2, #3
 613 0208 1A60     		str	r2, [r3]
 626:.\Generated_Source\PSoC4/cyfitter_cfg.c **** 		CY_SET_XTND_REG32((void CYFAR *)(CYREG_PRT4_PC), 0x00000024u);
 614              		.loc 1 626 0
 615 020a 2A4B     		ldr	r3, .L22+68
 616 020c 2422     		mov	r2, #36
 617 020e 1A60     		str	r2, [r3]
 627:.\Generated_Source\PSoC4/cyfitter_cfg.c **** 
 628:.\Generated_Source\PSoC4/cyfitter_cfg.c **** 		/* UDB_PA_0 Starting address: CYDEV_UDB_PA0_BASE */
 629:.\Generated_Source\PSoC4/cyfitter_cfg.c **** 		CY_SET_XTND_REG32((void CYFAR *)(CYDEV_UDB_PA0_BASE), 0x00990004u);
ARM GAS  F:\UTILIS~1\demasson\AppData\Local\Temp\cctFxQuy.s 			page 23


 618              		.loc 1 629 0
 619 0210 294B     		ldr	r3, .L22+72
 620 0212 2A4A     		ldr	r2, .L22+76
 621 0214 1A60     		str	r2, [r3]
 630:.\Generated_Source\PSoC4/cyfitter_cfg.c **** 		CY_SET_XTND_REG32((void CYFAR *)(CYREG_UDB_PA0_CFG4), 0x82000000u);
 622              		.loc 1 630 0
 623 0216 2A4B     		ldr	r3, .L22+80
 624 0218 8222     		mov	r2, #130
 625 021a 1206     		lsl	r2, r2, #24
 626 021c 1A60     		str	r2, [r3]
 631:.\Generated_Source\PSoC4/cyfitter_cfg.c **** 		CY_SET_XTND_REG32((void CYFAR *)(CYREG_UDB_PA0_CFG8), 0x344B0000u);
 627              		.loc 1 631 0
 628 021e 294B     		ldr	r3, .L22+84
 629 0220 294A     		ldr	r2, .L22+88
 630 0222 1A60     		str	r2, [r3]
 632:.\Generated_Source\PSoC4/cyfitter_cfg.c **** 
 633:.\Generated_Source\PSoC4/cyfitter_cfg.c **** 		/* UDB_PA_1 Starting address: CYDEV_UDB_PA1_BASE */
 634:.\Generated_Source\PSoC4/cyfitter_cfg.c **** 		CY_SET_XTND_REG32((void CYFAR *)(CYDEV_UDB_PA1_BASE), 0x00990000u);
 631              		.loc 1 634 0
 632 0224 294B     		ldr	r3, .L22+92
 633 0226 9922     		mov	r2, #153
 634 0228 1204     		lsl	r2, r2, #16
 635 022a 1A60     		str	r2, [r3]
 635:.\Generated_Source\PSoC4/cyfitter_cfg.c **** 		CY_SET_XTND_REG32((void CYFAR *)(CYREG_UDB_PA1_CFG8), 0x00030000u);
 636              		.loc 1 635 0
 637 022c 284B     		ldr	r3, .L22+96
 638 022e C022     		mov	r2, #192
 639 0230 9202     		lsl	r2, r2, #10
 640 0232 1A60     		str	r2, [r3]
 636:.\Generated_Source\PSoC4/cyfitter_cfg.c **** 
 637:.\Generated_Source\PSoC4/cyfitter_cfg.c **** 		/* UDB_PA_3 Starting address: CYDEV_UDB_PA3_BASE */
 638:.\Generated_Source\PSoC4/cyfitter_cfg.c **** 		CY_SET_XTND_REG32((void CYFAR *)(CYDEV_UDB_PA3_BASE), 0x00990000u);
 641              		.loc 1 638 0
 642 0234 274B     		ldr	r3, .L22+100
 643 0236 9922     		mov	r2, #153
 644 0238 1204     		lsl	r2, r2, #16
 645 023a 1A60     		str	r2, [r3]
 639:.\Generated_Source\PSoC4/cyfitter_cfg.c **** 
 640:.\Generated_Source\PSoC4/cyfitter_cfg.c **** 		/* Enable digital routing */
 641:.\Generated_Source\PSoC4/cyfitter_cfg.c **** 		CY_SET_XTND_REG8((void *)CYREG_UDB_UDBIF_BANK_CTL, CY_GET_XTND_REG8((void *)CYREG_UDB_UDBIF_BANK_
 646              		.loc 1 641 0
 647 023c 264B     		ldr	r3, .L22+104
 648 023e 264A     		ldr	r2, .L22+104
 649 0240 1278     		ldrb	r2, [r2]
 650 0242 D2B2     		uxtb	r2, r2
 651 0244 0221     		mov	r1, #2
 652 0246 0A43     		orr	r2, r1
 653 0248 D2B2     		uxtb	r2, r2
 654 024a 1A70     		strb	r2, [r3]
 642:.\Generated_Source\PSoC4/cyfitter_cfg.c **** 
 643:.\Generated_Source\PSoC4/cyfitter_cfg.c **** 		/* Enable UDB array */
 644:.\Generated_Source\PSoC4/cyfitter_cfg.c **** 		CY_SET_XTND_REG8((void *)CYREG_UDB_UDBIF_BANK_CTL, CY_GET_XTND_REG8((void *)CYREG_UDB_UDBIF_BANK_
 655              		.loc 1 644 0
 656 024c 224B     		ldr	r3, .L22+104
 657 024e 224A     		ldr	r2, .L22+104
 658 0250 1278     		ldrb	r2, [r2]
 659 0252 D2B2     		uxtb	r2, r2
ARM GAS  F:\UTILIS~1\demasson\AppData\Local\Temp\cctFxQuy.s 			page 24


 660 0254 0621     		mov	r1, #6
 661 0256 0A43     		orr	r2, r1
 662 0258 D2B2     		uxtb	r2, r2
 663 025a 1A70     		strb	r2, [r3]
 664              	.LBE3:
 645:.\Generated_Source\PSoC4/cyfitter_cfg.c **** 	}
 646:.\Generated_Source\PSoC4/cyfitter_cfg.c **** 
 647:.\Generated_Source\PSoC4/cyfitter_cfg.c **** 	/* Perform second pass device configuration. These items must be configured in specific order afte
 648:.\Generated_Source\PSoC4/cyfitter_cfg.c **** 	CY_SET_XTND_REG8((void CYFAR *)(CYREG_UDB_P0_U1_CFG27), 0x44u);
 665              		.loc 1 648 0
 666 025c 1F4B     		ldr	r3, .L22+108
 667 025e 4422     		mov	r2, #68
 668 0260 1A70     		strb	r2, [r3]
 649:.\Generated_Source\PSoC4/cyfitter_cfg.c **** 
 650:.\Generated_Source\PSoC4/cyfitter_cfg.c **** 	/* Setup clocks based on selections from Clock DWR */
 651:.\Generated_Source\PSoC4/cyfitter_cfg.c **** 	ClockSetup();
 669              		.loc 1 651 0
 670 0262 FFF725FF 		bl	ClockSetup
 652:.\Generated_Source\PSoC4/cyfitter_cfg.c **** 
 653:.\Generated_Source\PSoC4/cyfitter_cfg.c **** 	/* Perform basic analog initialization to defaults */
 654:.\Generated_Source\PSoC4/cyfitter_cfg.c **** 	AnalogSetDefault();
 671              		.loc 1 654 0
 672 0266 FFF7FEFF 		bl	AnalogSetDefault
 655:.\Generated_Source\PSoC4/cyfitter_cfg.c **** 
 656:.\Generated_Source\PSoC4/cyfitter_cfg.c **** }
 673              		.loc 1 656 0
 674 026a BD46     		mov	sp, r7
 675 026c 02B0     		add	sp, sp, #8
 676              		@ sp needed for prologue
 677 026e 80BD     		pop	{r7, pc}
 678              	.L23:
 679              		.align	2
 680              	.L22:
 681 0270 00000000 		.word	cfg_memset_list.4668
 682 0274 0C000000 		.word	cy_cfg_addr_table.4662
 683 0278 2C000000 		.word	cy_cfg_data_table.4663
 684 027c 00600F40 		.word	1074749440
 685 0280 02600F40 		.word	1074749442
 686 0284 00000140 		.word	1073807360
 687 0288 33333003 		.word	53490483
 688 028c 04000140 		.word	1073807364
 689 0290 0C000140 		.word	1073807372
 690 0294 10000140 		.word	1073807376
 691 0298 00000440 		.word	1074003968
 692 029c 08000440 		.word	1074003976
 693 02a0 B62D5B00 		.word	5975478
 694 02a4 00010440 		.word	1074004224
 695 02a8 08010440 		.word	1074004232
 696 02ac 08030440 		.word	1074004744
 697 02b0 00040440 		.word	1074004992
 698 02b4 08040440 		.word	1074005000
 699 02b8 00500F40 		.word	1074745344
 700 02bc 04009900 		.word	10027012
 701 02c0 04500F40 		.word	1074745348
 702 02c4 08500F40 		.word	1074745352
 703 02c8 00004B34 		.word	877330432
 704 02cc 10500F40 		.word	1074745360
ARM GAS  F:\UTILIS~1\demasson\AppData\Local\Temp\cctFxQuy.s 			page 25


 705 02d0 18500F40 		.word	1074745368
 706 02d4 30500F40 		.word	1074745392
 707 02d8 00700F40 		.word	1074753536
 708 02dc DB300F40 		.word	1074737371
 709              		.cfi_endproc
 710              	.LFE7:
 711              		.size	cyfitter_cfg, .-cyfitter_cfg
 712              		.section	.rodata
 713              		.align	2
 714              		.type	cfg_memset_list.4668, %object
 715              		.size	cfg_memset_list.4668, 12
 716              	cfg_memset_list.4668:
 717 0000 00300F40 		.word	1074737152
 718 0004 0004     		.short	1024
 719 0006 00400F40 		.4byte	1074741248
 720 000a 0004     		.short	1024
 721              		.align	2
 722              		.type	cy_cfg_addr_table.4662, %object
 723              		.size	cy_cfg_addr_table.4662, 32
 724              	cy_cfg_addr_table.4662:
 725 000c 02000F40 		.word	1074724866
 726 0010 48300F40 		.word	1074737224
 727 0014 2C310F40 		.word	1074737452
 728 0018 3D320F40 		.word	1074737725
 729 001c 25330F40 		.word	1074737957
 730 0020 10400F40 		.word	1074741264
 731 0024 0A410F40 		.word	1074741514
 732 0028 02600F40 		.word	1074749442
 733              		.align	2
 734              		.type	cy_cfg_data_table.4663, %object
 735              		.size	cy_cfg_data_table.4663, 488
 736              	cy_cfg_data_table.4663:
 737 002c 71       		.byte	113
 738 002d 03       		.byte	3
 739 002e 81       		.byte	-127
 740 002f 67       		.byte	103
 741 0030 40       		.byte	64
 742 0031 14       		.byte	20
 743 0032 41       		.byte	65
 744 0033 06       		.byte	6
 745 0034 49       		.byte	73
 746 0035 FF       		.byte	-1
 747 0036 4A       		.byte	74
 748 0037 FF       		.byte	-1
 749 0038 4B       		.byte	75
 750 0039 FF       		.byte	-1
 751 003a 4D       		.byte	77
 752 003b A0       		.byte	-96
 753 003c 4F       		.byte	79
 754 003d 01       		.byte	1
 755 003e 50       		.byte	80
 756 003f 18       		.byte	24
 757 0040 5A       		.byte	90
 758 0041 04       		.byte	4
 759 0042 5F       		.byte	95
 760 0043 01       		.byte	1
 761 0044 60       		.byte	96
ARM GAS  F:\UTILIS~1\demasson\AppData\Local\Temp\cctFxQuy.s 			page 26


 762 0045 40       		.byte	64
 763 0046 62       		.byte	98
 764 0047 80       		.byte	-128
 765 0048 64       		.byte	100
 766 0049 40       		.byte	64
 767 004a 65       		.byte	101
 768 004b 40       		.byte	64
 769 004c 66       		.byte	102
 770 004d 80       		.byte	-128
 771 004e 68       		.byte	104
 772 004f 40       		.byte	64
 773 0050 6A       		.byte	106
 774 0051 50       		.byte	80
 775 0052 6B       		.byte	107
 776 0053 A8       		.byte	-88
 777 0054 6C       		.byte	108
 778 0055 40       		.byte	64
 779 0056 6D       		.byte	109
 780 0057 20       		.byte	32
 781 0058 6E       		.byte	110
 782 0059 50       		.byte	80
 783 005a 6F       		.byte	111
 784 005b A8       		.byte	-88
 785 005c 81       		.byte	-127
 786 005d 01       		.byte	1
 787 005e 82       		.byte	-126
 788 005f 0C       		.byte	12
 789 0060 86       		.byte	-122
 790 0061 02       		.byte	2
 791 0062 8C       		.byte	-116
 792 0063 02       		.byte	2
 793 0064 94       		.byte	-108
 794 0065 08       		.byte	8
 795 0066 97       		.byte	-105
 796 0067 02       		.byte	2
 797 0068 A4       		.byte	-92
 798 0069 01       		.byte	1
 799 006a A5       		.byte	-91
 800 006b 01       		.byte	1
 801 006c A6       		.byte	-90
 802 006d 02       		.byte	2
 803 006e B0       		.byte	-80
 804 006f 01       		.byte	1
 805 0070 B2       		.byte	-78
 806 0071 04       		.byte	4
 807 0072 B4       		.byte	-76
 808 0073 08       		.byte	8
 809 0074 B5       		.byte	-75
 810 0075 01       		.byte	1
 811 0076 B6       		.byte	-74
 812 0077 02       		.byte	2
 813 0078 B7       		.byte	-73
 814 0079 02       		.byte	2
 815 007a B9       		.byte	-71
 816 007b 28       		.byte	40
 817 007c BE       		.byte	-66
 818 007d 51       		.byte	81
ARM GAS  F:\UTILIS~1\demasson\AppData\Local\Temp\cctFxQuy.s 			page 27


 819 007e BF       		.byte	-65
 820 007f 14       		.byte	20
 821 0080 C0       		.byte	-64
 822 0081 14       		.byte	20
 823 0082 C1       		.byte	-63
 824 0083 06       		.byte	6
 825 0084 C5       		.byte	-59
 826 0085 4C       		.byte	76
 827 0086 C6       		.byte	-58
 828 0087 20       		.byte	32
 829 0088 C7       		.byte	-57
 830 0089 5E       		.byte	94
 831 008a C8       		.byte	-56
 832 008b 3F       		.byte	63
 833 008c C9       		.byte	-55
 834 008d FF       		.byte	-1
 835 008e CA       		.byte	-54
 836 008f FF       		.byte	-1
 837 0090 CB       		.byte	-53
 838 0091 FF       		.byte	-1
 839 0092 CD       		.byte	-51
 840 0093 AF       		.byte	-81
 841 0094 CE       		.byte	-50
 842 0095 07       		.byte	7
 843 0096 CF       		.byte	-49
 844 0097 01       		.byte	1
 845 0098 D0       		.byte	-48
 846 0099 18       		.byte	24
 847 009a D4       		.byte	-44
 848 009b 07       		.byte	7
 849 009c D8       		.byte	-40
 850 009d 04       		.byte	4
 851 009e D9       		.byte	-39
 852 009f 04       		.byte	4
 853 00a0 DA       		.byte	-38
 854 00a1 04       		.byte	4
 855 00a2 DB       		.byte	-37
 856 00a3 04       		.byte	4
 857 00a4 DE       		.byte	-34
 858 00a5 80       		.byte	-128
 859 00a6 DF       		.byte	-33
 860 00a7 05       		.byte	5
 861 00a8 E0       		.byte	-32
 862 00a9 40       		.byte	64
 863 00aa E2       		.byte	-30
 864 00ab 80       		.byte	-128
 865 00ac E4       		.byte	-28
 866 00ad 40       		.byte	64
 867 00ae E5       		.byte	-27
 868 00af 40       		.byte	64
 869 00b0 E6       		.byte	-26
 870 00b1 80       		.byte	-128
 871 00b2 E8       		.byte	-24
 872 00b3 40       		.byte	64
 873 00b4 EA       		.byte	-22
 874 00b5 50       		.byte	80
 875 00b6 EB       		.byte	-21
ARM GAS  F:\UTILIS~1\demasson\AppData\Local\Temp\cctFxQuy.s 			page 28


 876 00b7 A8       		.byte	-88
 877 00b8 EC       		.byte	-20
 878 00b9 40       		.byte	64
 879 00ba ED       		.byte	-19
 880 00bb 20       		.byte	32
 881 00bc EE       		.byte	-18
 882 00bd 50       		.byte	80
 883 00be EF       		.byte	-17
 884 00bf A8       		.byte	-88
 885 00c0 05       		.byte	5
 886 00c1 04       		.byte	4
 887 00c2 06       		.byte	6
 888 00c3 80       		.byte	-128
 889 00c4 07       		.byte	7
 890 00c5 02       		.byte	2
 891 00c6 0D       		.byte	13
 892 00c7 08       		.byte	8
 893 00c8 17       		.byte	23
 894 00c9 04       		.byte	4
 895 00ca 1C       		.byte	28
 896 00cb 41       		.byte	65
 897 00cc 1D       		.byte	29
 898 00cd 8A       		.byte	-118
 899 00ce 1E       		.byte	30
 900 00cf 08       		.byte	8
 901 00d0 26       		.byte	38
 902 00d1 18       		.byte	24
 903 00d2 27       		.byte	39
 904 00d3 02       		.byte	2
 905 00d4 2F       		.byte	47
 906 00d5 10       		.byte	16
 907 00d6 35       		.byte	53
 908 00d7 04       		.byte	4
 909 00d8 3D       		.byte	61
 910 00d9 02       		.byte	2
 911 00da 40       		.byte	64
 912 00db 41       		.byte	65
 913 00dc 45       		.byte	69
 914 00dd 82       		.byte	-126
 915 00de 4A       		.byte	74
 916 00df 08       		.byte	8
 917 00e0 4D       		.byte	77
 918 00e1 02       		.byte	2
 919 00e2 4E       		.byte	78
 920 00e3 08       		.byte	8
 921 00e4 4F       		.byte	79
 922 00e5 04       		.byte	4
 923 00e6 56       		.byte	86
 924 00e7 8A       		.byte	-118
 925 00e8 57       		.byte	87
 926 00e9 10       		.byte	16
 927 00ea 5E       		.byte	94
 928 00eb 48       		.byte	72
 929 00ec 5F       		.byte	95
 930 00ed 10       		.byte	16
 931 00ee 63       		.byte	99
 932 00ef 30       		.byte	48
ARM GAS  F:\UTILIS~1\demasson\AppData\Local\Temp\cctFxQuy.s 			page 29


 933 00f0 66       		.byte	102
 934 00f1 08       		.byte	8
 935 00f2 67       		.byte	103
 936 00f3 04       		.byte	4
 937 00f4 6F       		.byte	111
 938 00f5 0E       		.byte	14
 939 00f6 7F       		.byte	127
 940 00f7 08       		.byte	8
 941 00f8 81       		.byte	-127
 942 00f9 04       		.byte	4
 943 00fa 8A       		.byte	-118
 944 00fb 10       		.byte	16
 945 00fc 8D       		.byte	-115
 946 00fd 01       		.byte	1
 947 00fe C0       		.byte	-64
 948 00ff B0       		.byte	-80
 949 0100 C2       		.byte	-62
 950 0101 20       		.byte	32
 951 0102 C4       		.byte	-60
 952 0103 20       		.byte	32
 953 0104 CA       		.byte	-54
 954 0105 40       		.byte	64
 955 0106 CC       		.byte	-52
 956 0107 40       		.byte	64
 957 0108 CE       		.byte	-50
 958 0109 80       		.byte	-128
 959 010a D0       		.byte	-48
 960 010b 99       		.byte	-103
 961 010c D2       		.byte	-46
 962 010d 24       		.byte	36
 963 010e D6       		.byte	-42
 964 010f 70       		.byte	112
 965 0110 D8       		.byte	-40
 966 0111 60       		.byte	96
 967 0112 DE       		.byte	-34
 968 0113 20       		.byte	32
 969 0114 E0       		.byte	-32
 970 0115 10       		.byte	16
 971 0116 E2       		.byte	-30
 972 0117 80       		.byte	-128
 973 0118 00       		.byte	0
 974 0119 02       		.byte	2
 975 011a 01       		.byte	1
 976 011b 01       		.byte	1
 977 011c 0C       		.byte	12
 978 011d 02       		.byte	2
 979 011e 11       		.byte	17
 980 011f 01       		.byte	1
 981 0120 17       		.byte	23
 982 0121 02       		.byte	2
 983 0122 1E       		.byte	30
 984 0123 01       		.byte	1
 985 0124 1F       		.byte	31
 986 0125 02       		.byte	2
 987 0126 20       		.byte	32
 988 0127 02       		.byte	2
 989 0128 26       		.byte	38
ARM GAS  F:\UTILIS~1\demasson\AppData\Local\Temp\cctFxQuy.s 			page 30


 990 0129 01       		.byte	1
 991 012a 2E       		.byte	46
 992 012b 01       		.byte	1
 993 012c 30       		.byte	48
 994 012d 02       		.byte	2
 995 012e 32       		.byte	50
 996 012f 01       		.byte	1
 997 0130 33       		.byte	51
 998 0131 02       		.byte	2
 999 0132 37       		.byte	55
 1000 0133 01       		.byte	1
 1001 0134 3E       		.byte	62
 1002 0135 01       		.byte	1
 1003 0136 40       		.byte	64
 1004 0137 20       		.byte	32
 1005 0138 41       		.byte	65
 1006 0139 05       		.byte	5
 1007 013a 49       		.byte	73
 1008 013b FF       		.byte	-1
 1009 013c 4A       		.byte	74
 1010 013d FF       		.byte	-1
 1011 013e 4B       		.byte	75
 1012 013f FF       		.byte	-1
 1013 0140 4D       		.byte	77
 1014 0141 A0       		.byte	-96
 1015 0142 4F       		.byte	79
 1016 0143 04       		.byte	4
 1017 0144 50       		.byte	80
 1018 0145 18       		.byte	24
 1019 0146 52       		.byte	82
 1020 0147 80       		.byte	-128
 1021 0148 58       		.byte	88
 1022 0149 04       		.byte	4
 1023 014a 59       		.byte	89
 1024 014b 04       		.byte	4
 1025 014c 5A       		.byte	90
 1026 014d 04       		.byte	4
 1027 014e 5B       		.byte	91
 1028 014f 04       		.byte	4
 1029 0150 5F       		.byte	95
 1030 0151 01       		.byte	1
 1031 0152 60       		.byte	96
 1032 0153 40       		.byte	64
 1033 0154 62       		.byte	98
 1034 0155 C0       		.byte	-64
 1035 0156 64       		.byte	100
 1036 0157 40       		.byte	64
 1037 0158 65       		.byte	101
 1038 0159 40       		.byte	64
 1039 015a 66       		.byte	102
 1040 015b C0       		.byte	-64
 1041 015c 68       		.byte	104
 1042 015d C0       		.byte	-64
 1043 015e 6A       		.byte	106
 1044 015f C0       		.byte	-64
 1045 0160 6C       		.byte	108
 1046 0161 C0       		.byte	-64
ARM GAS  F:\UTILIS~1\demasson\AppData\Local\Temp\cctFxQuy.s 			page 31


 1047 0162 6E       		.byte	110
 1048 0163 C0       		.byte	-64
 1049 0164 C0       		.byte	-64
 1050 0165 30       		.byte	48
 1051 0166 C1       		.byte	-63
 1052 0167 05       		.byte	5
 1053 0168 C6       		.byte	-58
 1054 0169 01       		.byte	1
 1055 016a C7       		.byte	-57
 1056 016b 20       		.byte	32
 1057 016c C8       		.byte	-56
 1058 016d 24       		.byte	36
 1059 016e C9       		.byte	-55
 1060 016f FF       		.byte	-1
 1061 0170 CA       		.byte	-54
 1062 0171 FF       		.byte	-1
 1063 0172 CB       		.byte	-53
 1064 0173 FF       		.byte	-1
 1065 0174 CD       		.byte	-51
 1066 0175 AF       		.byte	-81
 1067 0176 CE       		.byte	-50
 1068 0177 0F       		.byte	15
 1069 0178 CF       		.byte	-49
 1070 0179 04       		.byte	4
 1071 017a D0       		.byte	-48
 1072 017b 18       		.byte	24
 1073 017c DA       		.byte	-38
 1074 017d 04       		.byte	4
 1075 017e DF       		.byte	-33
 1076 017f 01       		.byte	1
 1077 0180 E0       		.byte	-32
 1078 0181 40       		.byte	64
 1079 0182 E2       		.byte	-30
 1080 0183 C0       		.byte	-64
 1081 0184 E4       		.byte	-28
 1082 0185 40       		.byte	64
 1083 0186 E5       		.byte	-27
 1084 0187 40       		.byte	64
 1085 0188 E6       		.byte	-26
 1086 0189 C0       		.byte	-64
 1087 018a E8       		.byte	-24
 1088 018b C0       		.byte	-64
 1089 018c EA       		.byte	-22
 1090 018d C0       		.byte	-64
 1091 018e EC       		.byte	-20
 1092 018f C0       		.byte	-64
 1093 0190 EE       		.byte	-18
 1094 0191 C0       		.byte	-64
 1095 0192 05       		.byte	5
 1096 0193 02       		.byte	2
 1097 0194 06       		.byte	6
 1098 0195 02       		.byte	2
 1099 0196 0D       		.byte	13
 1100 0197 80       		.byte	-128
 1101 0198 17       		.byte	23
 1102 0199 46       		.byte	70
 1103 019a 1D       		.byte	29
ARM GAS  F:\UTILIS~1\demasson\AppData\Local\Temp\cctFxQuy.s 			page 32


 1104 019b 04       		.byte	4
 1105 019c 1E       		.byte	30
 1106 019d 40       		.byte	64
 1107 019e 24       		.byte	36
 1108 019f 10       		.byte	16
 1109 01a0 27       		.byte	39
 1110 01a1 22       		.byte	34
 1111 01a2 35       		.byte	53
 1112 01a3 02       		.byte	2
 1113 01a4 37       		.byte	55
 1114 01a5 44       		.byte	68
 1115 01a6 3E       		.byte	62
 1116 01a7 02       		.byte	2
 1117 01a8 40       		.byte	64
 1118 01a9 10       		.byte	16
 1119 01aa 47       		.byte	71
 1120 01ab 20       		.byte	32
 1121 01ac 48       		.byte	72
 1122 01ad 02       		.byte	2
 1123 01ae 4E       		.byte	78
 1124 01af 02       		.byte	2
 1125 01b0 50       		.byte	80
 1126 01b1 02       		.byte	2
 1127 01b2 51       		.byte	81
 1128 01b3 80       		.byte	-128
 1129 01b4 52       		.byte	82
 1130 01b5 02       		.byte	2
 1131 01b6 77       		.byte	119
 1132 01b7 40       		.byte	64
 1133 01b8 96       		.byte	-106
 1134 01b9 40       		.byte	64
 1135 01ba 99       		.byte	-103
 1136 01bb 02       		.byte	2
 1137 01bc 9A       		.byte	-102
 1138 01bd 02       		.byte	2
 1139 01be 9B       		.byte	-101
 1140 01bf 04       		.byte	4
 1141 01c0 9D       		.byte	-99
 1142 01c1 04       		.byte	4
 1143 01c2 A9       		.byte	-87
 1144 01c3 02       		.byte	2
 1145 01c4 AF       		.byte	-81
 1146 01c5 10       		.byte	16
 1147 01c6 B2       		.byte	-78
 1148 01c7 08       		.byte	8
 1149 01c8 B7       		.byte	-73
 1150 01c9 0A       		.byte	10
 1151 01ca C0       		.byte	-64
 1152 01cb 90       		.byte	-112
 1153 01cc C2       		.byte	-62
 1154 01cd 80       		.byte	-128
 1155 01ce C4       		.byte	-60
 1156 01cf B0       		.byte	-80
 1157 01d0 CC       		.byte	-52
 1158 01d1 D0       		.byte	-48
 1159 01d2 CE       		.byte	-50
 1160 01d3 80       		.byte	-128
ARM GAS  F:\UTILIS~1\demasson\AppData\Local\Temp\cctFxQuy.s 			page 33


 1161 01d4 D0       		.byte	-48
 1162 01d5 22       		.byte	34
 1163 01d6 D2       		.byte	-46
 1164 01d7 18       		.byte	24
 1165 01d8 EA       		.byte	-22
 1166 01d9 10       		.byte	16
 1167 01da EE       		.byte	-18
 1168 01db C0       		.byte	-64
 1169 01dc 0B       		.byte	11
 1170 01dd 40       		.byte	64
 1171 01de 0E       		.byte	14
 1172 01df 02       		.byte	2
 1173 01e0 50       		.byte	80
 1174 01e1 04       		.byte	4
 1175 01e2 54       		.byte	84
 1176 01e3 02       		.byte	2
 1177 01e4 56       		.byte	86
 1178 01e5 20       		.byte	32
 1179 01e6 58       		.byte	88
 1180 01e7 40       		.byte	64
 1181 01e8 5C       		.byte	92
 1182 01e9 01       		.byte	1
 1183 01ea 66       		.byte	102
 1184 01eb 08       		.byte	8
 1185 01ec 82       		.byte	-126
 1186 01ed 08       		.byte	8
 1187 01ee 88       		.byte	-120
 1188 01ef 40       		.byte	64
 1189 01f0 8E       		.byte	-114
 1190 01f1 01       		.byte	1
 1191 01f2 C2       		.byte	-62
 1192 01f3 90       		.byte	-112
 1193 01f4 D4       		.byte	-44
 1194 01f5 E0       		.byte	-32
 1195 01f6 D6       		.byte	-42
 1196 01f7 A0       		.byte	-96
 1197 01f8 D8       		.byte	-40
 1198 01f9 80       		.byte	-128
 1199 01fa E6       		.byte	-26
 1200 01fb 80       		.byte	-128
 1201 01fc 54       		.byte	84
 1202 01fd 02       		.byte	2
 1203 01fe A0       		.byte	-96
 1204 01ff 02       		.byte	2
 1205 0200 A8       		.byte	-88
 1206 0201 01       		.byte	1
 1207 0202 AF       		.byte	-81
 1208 0203 40       		.byte	64
 1209 0204 B0       		.byte	-80
 1210 0205 02       		.byte	2
 1211 0206 B4       		.byte	-76
 1212 0207 04       		.byte	4
 1213 0208 B6       		.byte	-74
 1214 0209 20       		.byte	32
 1215 020a D6       		.byte	-42
 1216 020b 20       		.byte	32
 1217 020c EA       		.byte	-22
ARM GAS  F:\UTILIS~1\demasson\AppData\Local\Temp\cctFxQuy.s 			page 34


 1218 020d 80       		.byte	-128
 1219 020e EC       		.byte	-20
 1220 020f 40       		.byte	64
 1221 0210 10       		.byte	16
 1222 0211 01       		.byte	1
 1223 0212 11       		.byte	17
 1224 0213 01       		.byte	1
 1225              		.align	2
 1226              		.type	IMO_TRIM_FREQ_TABLE_ENTRIES.4642, %object
 1227              		.size	IMO_TRIM_FREQ_TABLE_ENTRIES.4642, 4
 1228              	IMO_TRIM_FREQ_TABLE_ENTRIES.4642:
 1229 0214 04000000 		.word	4
 1230              		.data
 1231              		.align	2
 1232              		.type	imo_trim_table.4641, %object
 1233              		.size	imo_trim_table.4641, 4
 1234              	imo_trim_table.4641:
 1235 0000 C0F1FF0F 		.word	268431808
 1236              		.text
 1237              	.Letext0:
 1238              		.file 2 "f:\\appli\\cypress\\psoc creator\\3.0\\psoc creator\\import\\gnu_cs\\arm\\4.7.3\\bin\\../
 1239              		.file 3 "./Generated_Source/PSoC4/cytypes.h"