ARM GAS  F:\UTILIS~1\demasson\AppData\Local\Temp\ccJT340d.s 			page 1


   1              		.cpu cortex-m0
   2              		.fpu softvfp
   3              		.eabi_attribute 20, 1
   4              		.eabi_attribute 21, 1
   5              		.eabi_attribute 23, 3
   6              		.eabi_attribute 24, 1
   7              		.eabi_attribute 25, 1
   8              		.eabi_attribute 26, 1
   9              		.eabi_attribute 30, 6
  10              		.eabi_attribute 34, 0
  11              		.eabi_attribute 18, 4
  12              		.code	16
  13              		.file	"I2CS_I2C.c"
  14              		.text
  15              	.Ltext0:
  16              		.cfi_sections	.debug_frame
  17              		.comm	I2CS_state,1,1
  18              		.section	.text.I2CS_I2CInit,"ax",%progbits
  19              		.align	2
  20              		.global	I2CS_I2CInit
  21              		.code	16
  22              		.thumb_func
  23              		.type	I2CS_I2CInit, %function
  24              	I2CS_I2CInit:
  25              	.LFB0:
  26              		.file 1 ".\\Generated_Source\\PSoC4\\I2CS_I2C.c"
   1:.\Generated_Source\PSoC4/I2CS_I2C.c **** /*******************************************************************************
   2:.\Generated_Source\PSoC4/I2CS_I2C.c **** * File Name: I2CS_I2C.c
   3:.\Generated_Source\PSoC4/I2CS_I2C.c **** * Version 1.20
   4:.\Generated_Source\PSoC4/I2CS_I2C.c **** *
   5:.\Generated_Source\PSoC4/I2CS_I2C.c **** * Description:
   6:.\Generated_Source\PSoC4/I2CS_I2C.c **** *  This file provides the source code to the API for the SCB Component in
   7:.\Generated_Source\PSoC4/I2CS_I2C.c **** *  I2C mode.
   8:.\Generated_Source\PSoC4/I2CS_I2C.c **** *
   9:.\Generated_Source\PSoC4/I2CS_I2C.c **** * Note:
  10:.\Generated_Source\PSoC4/I2CS_I2C.c **** *
  11:.\Generated_Source\PSoC4/I2CS_I2C.c **** *******************************************************************************
  12:.\Generated_Source\PSoC4/I2CS_I2C.c **** * Copyright 2013-2014, Cypress Semiconductor Corporation.  All rights reserved.
  13:.\Generated_Source\PSoC4/I2CS_I2C.c **** * You may use this file only in accordance with the license, terms, conditions,
  14:.\Generated_Source\PSoC4/I2CS_I2C.c **** * disclaimers, and limitations in the end user license agreement accompanying
  15:.\Generated_Source\PSoC4/I2CS_I2C.c **** * the software package with which this file was provided.
  16:.\Generated_Source\PSoC4/I2CS_I2C.c **** *******************************************************************************/
  17:.\Generated_Source\PSoC4/I2CS_I2C.c **** 
  18:.\Generated_Source\PSoC4/I2CS_I2C.c **** #include "I2CS_PVT.h"
  19:.\Generated_Source\PSoC4/I2CS_I2C.c **** #include "I2CS_I2C_PVT.h"
  20:.\Generated_Source\PSoC4/I2CS_I2C.c **** 
  21:.\Generated_Source\PSoC4/I2CS_I2C.c **** 
  22:.\Generated_Source\PSoC4/I2CS_I2C.c **** /***************************************
  23:.\Generated_Source\PSoC4/I2CS_I2C.c **** *      I2C Private Vars
  24:.\Generated_Source\PSoC4/I2CS_I2C.c **** ***************************************/
  25:.\Generated_Source\PSoC4/I2CS_I2C.c **** 
  26:.\Generated_Source\PSoC4/I2CS_I2C.c **** volatile uint8 I2CS_state;  /* Current state of I2C FSM */
  27:.\Generated_Source\PSoC4/I2CS_I2C.c **** 
  28:.\Generated_Source\PSoC4/I2CS_I2C.c **** 
  29:.\Generated_Source\PSoC4/I2CS_I2C.c **** #if(I2CS_SCB_MODE_UNCONFIG_CONST_CFG)
  30:.\Generated_Source\PSoC4/I2CS_I2C.c **** 
  31:.\Generated_Source\PSoC4/I2CS_I2C.c ****     /***************************************
ARM GAS  F:\UTILIS~1\demasson\AppData\Local\Temp\ccJT340d.s 			page 2


  32:.\Generated_Source\PSoC4/I2CS_I2C.c ****     *  Config Structure Initialization
  33:.\Generated_Source\PSoC4/I2CS_I2C.c ****     ***************************************/
  34:.\Generated_Source\PSoC4/I2CS_I2C.c **** 
  35:.\Generated_Source\PSoC4/I2CS_I2C.c ****     /* Constant configuration of I2C */
  36:.\Generated_Source\PSoC4/I2CS_I2C.c ****     const I2CS_I2C_INIT_STRUCT I2CS_configI2C =
  37:.\Generated_Source\PSoC4/I2CS_I2C.c ****     {
  38:.\Generated_Source\PSoC4/I2CS_I2C.c ****         I2CS_I2C_MODE,
  39:.\Generated_Source\PSoC4/I2CS_I2C.c ****         I2CS_I2C_OVS_FACTOR_LOW,
  40:.\Generated_Source\PSoC4/I2CS_I2C.c ****         I2CS_I2C_OVS_FACTOR_HIGH,
  41:.\Generated_Source\PSoC4/I2CS_I2C.c ****         I2CS_I2C_MEDIAN_FILTER_ENABLE,
  42:.\Generated_Source\PSoC4/I2CS_I2C.c ****         I2CS_I2C_SLAVE_ADDRESS,
  43:.\Generated_Source\PSoC4/I2CS_I2C.c ****         I2CS_I2C_SLAVE_ADDRESS_MASK,
  44:.\Generated_Source\PSoC4/I2CS_I2C.c ****         I2CS_I2C_ACCEPT_ADDRESS,
  45:.\Generated_Source\PSoC4/I2CS_I2C.c ****         I2CS_I2C_WAKE_ENABLE
  46:.\Generated_Source\PSoC4/I2CS_I2C.c ****     };
  47:.\Generated_Source\PSoC4/I2CS_I2C.c **** 
  48:.\Generated_Source\PSoC4/I2CS_I2C.c ****     /*******************************************************************************
  49:.\Generated_Source\PSoC4/I2CS_I2C.c ****     * Function Name: I2CS_I2CInit
  50:.\Generated_Source\PSoC4/I2CS_I2C.c ****     ********************************************************************************
  51:.\Generated_Source\PSoC4/I2CS_I2C.c ****     *
  52:.\Generated_Source\PSoC4/I2CS_I2C.c ****     * Summary:
  53:.\Generated_Source\PSoC4/I2CS_I2C.c ****     *  Configures the SCB for I2C operation.
  54:.\Generated_Source\PSoC4/I2CS_I2C.c ****     *
  55:.\Generated_Source\PSoC4/I2CS_I2C.c ****     * Parameters:
  56:.\Generated_Source\PSoC4/I2CS_I2C.c ****     *  config:  Pointer to a structure that contains the following ordered list of
  57:.\Generated_Source\PSoC4/I2CS_I2C.c ****     *           fields. These fields match the selections available in the
  58:.\Generated_Source\PSoC4/I2CS_I2C.c ****     *           customizer.
  59:.\Generated_Source\PSoC4/I2CS_I2C.c ****     *
  60:.\Generated_Source\PSoC4/I2CS_I2C.c ****     * Return:
  61:.\Generated_Source\PSoC4/I2CS_I2C.c ****     *  None
  62:.\Generated_Source\PSoC4/I2CS_I2C.c ****     *
  63:.\Generated_Source\PSoC4/I2CS_I2C.c ****     *******************************************************************************/
  64:.\Generated_Source\PSoC4/I2CS_I2C.c ****     void I2CS_I2CInit(const I2CS_I2C_INIT_STRUCT *config)
  65:.\Generated_Source\PSoC4/I2CS_I2C.c ****     {
  66:.\Generated_Source\PSoC4/I2CS_I2C.c ****         if(NULL == config)
  67:.\Generated_Source\PSoC4/I2CS_I2C.c ****         {
  68:.\Generated_Source\PSoC4/I2CS_I2C.c ****             CYASSERT(0u != 0u); /* Halt execution due bad function parameter */
  69:.\Generated_Source\PSoC4/I2CS_I2C.c ****         }
  70:.\Generated_Source\PSoC4/I2CS_I2C.c ****         else
  71:.\Generated_Source\PSoC4/I2CS_I2C.c ****         {
  72:.\Generated_Source\PSoC4/I2CS_I2C.c ****             /* Configure pins */
  73:.\Generated_Source\PSoC4/I2CS_I2C.c ****             I2CS_SetPins(I2CS_SCB_MODE_I2C, I2CS_DUMMY_PARAM,
  74:.\Generated_Source\PSoC4/I2CS_I2C.c ****                                                                     I2CS_DUMMY_PARAM);
  75:.\Generated_Source\PSoC4/I2CS_I2C.c **** 
  76:.\Generated_Source\PSoC4/I2CS_I2C.c ****             /* Store internal configuration */
  77:.\Generated_Source\PSoC4/I2CS_I2C.c ****             I2CS_scbMode       = (uint8) I2CS_SCB_MODE_I2C;
  78:.\Generated_Source\PSoC4/I2CS_I2C.c ****             I2CS_scbEnableWake = (uint8) config->enableWake;
  79:.\Generated_Source\PSoC4/I2CS_I2C.c ****             I2CS_scbEnableIntr = (uint8) I2CS_SCB_IRQ_INTERNAL;
  80:.\Generated_Source\PSoC4/I2CS_I2C.c **** 
  81:.\Generated_Source\PSoC4/I2CS_I2C.c ****             I2CS_mode          = (uint8) config->mode;
  82:.\Generated_Source\PSoC4/I2CS_I2C.c ****             I2CS_acceptAddr    = (uint8) config->acceptAddr;
  83:.\Generated_Source\PSoC4/I2CS_I2C.c **** 
  84:.\Generated_Source\PSoC4/I2CS_I2C.c ****             /* Configure I2C interface */
  85:.\Generated_Source\PSoC4/I2CS_I2C.c ****             I2CS_CTRL_REG     = I2CS_GET_CTRL_ADDR_ACCEPT(config->acceptAddr) |
  86:.\Generated_Source\PSoC4/I2CS_I2C.c ****                                             I2CS_GET_CTRL_EC_AM_MODE (config->enableWake);
  87:.\Generated_Source\PSoC4/I2CS_I2C.c **** 
  88:.\Generated_Source\PSoC4/I2CS_I2C.c ****             I2CS_I2C_CTRL_REG = I2CS_GET_I2C_CTRL_HIGH_PHASE_OVS(config->oversampleHigh) |
ARM GAS  F:\UTILIS~1\demasson\AppData\Local\Temp\ccJT340d.s 			page 3


  89:.\Generated_Source\PSoC4/I2CS_I2C.c ****                                             I2CS_GET_I2C_CTRL_LOW_PHASE_OVS (config->oversampleLow)
  90:.\Generated_Source\PSoC4/I2CS_I2C.c ****                                             I2CS_GET_I2C_CTRL_SL_MSTR_MODE  (config->mode)         
  91:.\Generated_Source\PSoC4/I2CS_I2C.c ****                                             I2CS_I2C_CTRL;
  92:.\Generated_Source\PSoC4/I2CS_I2C.c **** 
  93:.\Generated_Source\PSoC4/I2CS_I2C.c ****         #if(I2CS_CY_SCBIP_V0)
  94:.\Generated_Source\PSoC4/I2CS_I2C.c ****             /* Adjust SDA filter settings. Ticket ID#150521 */
  95:.\Generated_Source\PSoC4/I2CS_I2C.c ****             I2CS_SET_I2C_CFG_SDA_FILT_TRIM(I2CS_EC_AM_I2C_CFG_SDA_FILT_TRIM);
  96:.\Generated_Source\PSoC4/I2CS_I2C.c ****         #endif /* (I2CS_CY_SCBIP_V0) */
  97:.\Generated_Source\PSoC4/I2CS_I2C.c **** 
  98:.\Generated_Source\PSoC4/I2CS_I2C.c ****             /* Configure RX direction */
  99:.\Generated_Source\PSoC4/I2CS_I2C.c ****             I2CS_RX_CTRL_REG      = I2CS_GET_RX_CTRL_MEDIAN(config->enableMedianFilter) |
 100:.\Generated_Source\PSoC4/I2CS_I2C.c ****                                                 I2CS_I2C_RX_CTRL;
 101:.\Generated_Source\PSoC4/I2CS_I2C.c ****             I2CS_RX_FIFO_CTRL_REG = I2CS_CLEAR_REG;
 102:.\Generated_Source\PSoC4/I2CS_I2C.c **** 
 103:.\Generated_Source\PSoC4/I2CS_I2C.c ****             /* Set default address and mask */
 104:.\Generated_Source\PSoC4/I2CS_I2C.c ****             I2CS_RX_MATCH_REG    = ((I2CS_I2C_SLAVE) ?
 105:.\Generated_Source\PSoC4/I2CS_I2C.c ****                                                 (I2CS_GET_I2C_8BIT_ADDRESS(config->slaveAddr) |
 106:.\Generated_Source\PSoC4/I2CS_I2C.c ****                                                  I2CS_GET_RX_MATCH_MASK(config->slaveAddrMask)) :
 107:.\Generated_Source\PSoC4/I2CS_I2C.c ****                                                 (I2CS_CLEAR_REG));
 108:.\Generated_Source\PSoC4/I2CS_I2C.c **** 
 109:.\Generated_Source\PSoC4/I2CS_I2C.c **** 
 110:.\Generated_Source\PSoC4/I2CS_I2C.c ****             /* Configure TX direction */
 111:.\Generated_Source\PSoC4/I2CS_I2C.c ****             I2CS_TX_CTRL_REG      = I2CS_I2C_TX_CTRL;
 112:.\Generated_Source\PSoC4/I2CS_I2C.c ****             I2CS_TX_FIFO_CTRL_REG = I2CS_CLEAR_REG;
 113:.\Generated_Source\PSoC4/I2CS_I2C.c **** 
 114:.\Generated_Source\PSoC4/I2CS_I2C.c ****             /* Configure interrupt with I2C handler but do not enable it */
 115:.\Generated_Source\PSoC4/I2CS_I2C.c ****             CyIntDisable    (I2CS_ISR_NUMBER);
 116:.\Generated_Source\PSoC4/I2CS_I2C.c ****             CyIntSetPriority(I2CS_ISR_NUMBER, I2CS_ISR_PRIORITY);
 117:.\Generated_Source\PSoC4/I2CS_I2C.c ****             (void) CyIntSetVector(I2CS_ISR_NUMBER, &I2CS_I2C_ISR);
 118:.\Generated_Source\PSoC4/I2CS_I2C.c **** 
 119:.\Generated_Source\PSoC4/I2CS_I2C.c ****             /* Configure interrupt sources */
 120:.\Generated_Source\PSoC4/I2CS_I2C.c ****         #if(!I2CS_CY_SCBIP_V1_I2C_ONLY)
 121:.\Generated_Source\PSoC4/I2CS_I2C.c ****             I2CS_INTR_SPI_EC_MASK_REG = I2CS_NO_INTR_SOURCES;
 122:.\Generated_Source\PSoC4/I2CS_I2C.c ****         #endif /* (!I2CS_CY_SCBIP_V1_I2C_ONLY) */
 123:.\Generated_Source\PSoC4/I2CS_I2C.c **** 
 124:.\Generated_Source\PSoC4/I2CS_I2C.c ****             I2CS_INTR_I2C_EC_MASK_REG = I2CS_NO_INTR_SOURCES;
 125:.\Generated_Source\PSoC4/I2CS_I2C.c ****             I2CS_INTR_RX_MASK_REG     = I2CS_NO_INTR_SOURCES;
 126:.\Generated_Source\PSoC4/I2CS_I2C.c ****             I2CS_INTR_TX_MASK_REG     = I2CS_NO_INTR_SOURCES;
 127:.\Generated_Source\PSoC4/I2CS_I2C.c **** 
 128:.\Generated_Source\PSoC4/I2CS_I2C.c ****             I2CS_INTR_SLAVE_MASK_REG  = ((I2CS_I2C_SLAVE) ?
 129:.\Generated_Source\PSoC4/I2CS_I2C.c ****                                                      (I2CS_I2C_INTR_SLAVE_MASK) :
 130:.\Generated_Source\PSoC4/I2CS_I2C.c ****                                                      (I2CS_CLEAR_REG));
 131:.\Generated_Source\PSoC4/I2CS_I2C.c **** 
 132:.\Generated_Source\PSoC4/I2CS_I2C.c ****             I2CS_INTR_MASTER_MASK_REG = ((I2CS_I2C_MASTER) ?
 133:.\Generated_Source\PSoC4/I2CS_I2C.c ****                                                      (I2CS_I2C_INTR_MASTER_MASK) :
 134:.\Generated_Source\PSoC4/I2CS_I2C.c ****                                                      (I2CS_CLEAR_REG));
 135:.\Generated_Source\PSoC4/I2CS_I2C.c **** 
 136:.\Generated_Source\PSoC4/I2CS_I2C.c ****             /* Configure global variables */
 137:.\Generated_Source\PSoC4/I2CS_I2C.c ****             I2CS_state = I2CS_I2C_FSM_IDLE;
 138:.\Generated_Source\PSoC4/I2CS_I2C.c **** 
 139:.\Generated_Source\PSoC4/I2CS_I2C.c ****             /* Internal slave variables */
 140:.\Generated_Source\PSoC4/I2CS_I2C.c ****             I2CS_slStatus        = 0u;
 141:.\Generated_Source\PSoC4/I2CS_I2C.c ****             I2CS_slRdBufIndex    = 0u;
 142:.\Generated_Source\PSoC4/I2CS_I2C.c ****             I2CS_slWrBufIndex    = 0u;
 143:.\Generated_Source\PSoC4/I2CS_I2C.c ****             I2CS_slOverFlowCount = 0u;
 144:.\Generated_Source\PSoC4/I2CS_I2C.c **** 
 145:.\Generated_Source\PSoC4/I2CS_I2C.c ****             /* Internal master variables */
ARM GAS  F:\UTILIS~1\demasson\AppData\Local\Temp\ccJT340d.s 			page 4


 146:.\Generated_Source\PSoC4/I2CS_I2C.c ****             I2CS_mstrStatus     = 0u;
 147:.\Generated_Source\PSoC4/I2CS_I2C.c ****             I2CS_mstrRdBufIndex = 0u;
 148:.\Generated_Source\PSoC4/I2CS_I2C.c ****             I2CS_mstrWrBufIndex = 0u;
 149:.\Generated_Source\PSoC4/I2CS_I2C.c ****         }
 150:.\Generated_Source\PSoC4/I2CS_I2C.c ****     }
 151:.\Generated_Source\PSoC4/I2CS_I2C.c **** 
 152:.\Generated_Source\PSoC4/I2CS_I2C.c **** #else
 153:.\Generated_Source\PSoC4/I2CS_I2C.c **** 
 154:.\Generated_Source\PSoC4/I2CS_I2C.c ****     /*******************************************************************************
 155:.\Generated_Source\PSoC4/I2CS_I2C.c ****     * Function Name: I2CS_I2CInit
 156:.\Generated_Source\PSoC4/I2CS_I2C.c ****     ********************************************************************************
 157:.\Generated_Source\PSoC4/I2CS_I2C.c ****     *
 158:.\Generated_Source\PSoC4/I2CS_I2C.c ****     * Summary:
 159:.\Generated_Source\PSoC4/I2CS_I2C.c ****     *  Configures the SCB for the I2C operation.
 160:.\Generated_Source\PSoC4/I2CS_I2C.c ****     *
 161:.\Generated_Source\PSoC4/I2CS_I2C.c ****     * Parameters:
 162:.\Generated_Source\PSoC4/I2CS_I2C.c ****     *  None
 163:.\Generated_Source\PSoC4/I2CS_I2C.c ****     *
 164:.\Generated_Source\PSoC4/I2CS_I2C.c ****     * Return:
 165:.\Generated_Source\PSoC4/I2CS_I2C.c ****     *  None
 166:.\Generated_Source\PSoC4/I2CS_I2C.c ****     *
 167:.\Generated_Source\PSoC4/I2CS_I2C.c ****     *******************************************************************************/
 168:.\Generated_Source\PSoC4/I2CS_I2C.c ****     void I2CS_I2CInit(void)
 169:.\Generated_Source\PSoC4/I2CS_I2C.c ****     {
  27              		.loc 1 169 0
  28              		.cfi_startproc
  29 0000 80B5     		push	{r7, lr}
  30              	.LCFI0:
  31              		.cfi_def_cfa_offset 8
  32              		.cfi_offset 7, -8
  33              		.cfi_offset 14, -4
  34 0002 00AF     		add	r7, sp, #0
  35              	.LCFI1:
  36              		.cfi_def_cfa_register 7
 170:.\Generated_Source\PSoC4/I2CS_I2C.c ****         /* Configure I2C interface */
 171:.\Generated_Source\PSoC4/I2CS_I2C.c ****         I2CS_CTRL_REG     = I2CS_I2C_DEFAULT_CTRL;
  37              		.loc 1 171 0
  38 0004 254B     		ldr	r3, .L2
  39 0006 8022     		mov	r2, #128
  40 0008 5200     		lsl	r2, r2, #1
  41 000a 1A60     		str	r2, [r3]
 172:.\Generated_Source\PSoC4/I2CS_I2C.c ****         I2CS_I2C_CTRL_REG = I2CS_I2C_DEFAULT_I2C_CTRL;
  42              		.loc 1 172 0
  43 000c 244B     		ldr	r3, .L2+4
  44 000e 254A     		ldr	r2, .L2+8
  45 0010 1A60     		str	r2, [r3]
 173:.\Generated_Source\PSoC4/I2CS_I2C.c **** 
 174:.\Generated_Source\PSoC4/I2CS_I2C.c ****     #if(I2CS_CY_SCBIP_V0)
 175:.\Generated_Source\PSoC4/I2CS_I2C.c ****         /* Adjust SDA filter settings. Ticket ID#150521 */
 176:.\Generated_Source\PSoC4/I2CS_I2C.c ****         I2CS_SET_I2C_CFG_SDA_FILT_TRIM(I2CS_EC_AM_I2C_CFG_SDA_FILT_TRIM);
  46              		.loc 1 176 0
  47 0012 254B     		ldr	r3, .L2+12
  48 0014 244A     		ldr	r2, .L2+12
  49 0016 1268     		ldr	r2, [r2]
  50 0018 0C21     		mov	r1, #12
  51 001a 0A43     		orr	r2, r1
  52 001c 1A60     		str	r2, [r3]
ARM GAS  F:\UTILIS~1\demasson\AppData\Local\Temp\ccJT340d.s 			page 5


 177:.\Generated_Source\PSoC4/I2CS_I2C.c ****     #endif /* (I2CS_CY_SCBIP_V0) */
 178:.\Generated_Source\PSoC4/I2CS_I2C.c **** 
 179:.\Generated_Source\PSoC4/I2CS_I2C.c ****         /* Configure RX direction */
 180:.\Generated_Source\PSoC4/I2CS_I2C.c ****         I2CS_RX_CTRL_REG      = I2CS_I2C_DEFAULT_RX_CTRL;
  53              		.loc 1 180 0
  54 001e 234B     		ldr	r3, .L2+16
  55 0020 234A     		ldr	r2, .L2+20
  56 0022 1A60     		str	r2, [r3]
 181:.\Generated_Source\PSoC4/I2CS_I2C.c ****         I2CS_RX_FIFO_CTRL_REG = I2CS_I2C_DEFAULT_RX_FIFO_CTRL;
  57              		.loc 1 181 0
  58 0024 234B     		ldr	r3, .L2+24
  59 0026 0022     		mov	r2, #0
  60 0028 1A60     		str	r2, [r3]
 182:.\Generated_Source\PSoC4/I2CS_I2C.c **** 
 183:.\Generated_Source\PSoC4/I2CS_I2C.c ****         /* Set default address and mask */
 184:.\Generated_Source\PSoC4/I2CS_I2C.c ****         I2CS_RX_MATCH_REG     = I2CS_I2C_DEFAULT_RX_MATCH;
  61              		.loc 1 184 0
  62 002a 234B     		ldr	r3, .L2+28
  63 002c 234A     		ldr	r2, .L2+32
  64 002e 1A60     		str	r2, [r3]
 185:.\Generated_Source\PSoC4/I2CS_I2C.c **** 
 186:.\Generated_Source\PSoC4/I2CS_I2C.c ****         /* Configure TX direction */
 187:.\Generated_Source\PSoC4/I2CS_I2C.c ****         I2CS_TX_CTRL_REG      = I2CS_I2C_DEFAULT_TX_CTRL;
  65              		.loc 1 187 0
  66 0030 234B     		ldr	r3, .L2+36
  67 0032 1F4A     		ldr	r2, .L2+20
  68 0034 1A60     		str	r2, [r3]
 188:.\Generated_Source\PSoC4/I2CS_I2C.c ****         I2CS_TX_FIFO_CTRL_REG = I2CS_I2C_DEFAULT_TX_FIFO_CTRL;
  69              		.loc 1 188 0
  70 0036 234B     		ldr	r3, .L2+40
  71 0038 0022     		mov	r2, #0
  72 003a 1A60     		str	r2, [r3]
 189:.\Generated_Source\PSoC4/I2CS_I2C.c **** 
 190:.\Generated_Source\PSoC4/I2CS_I2C.c ****         /* Configure interrupt with I2C handler but do not enable it */
 191:.\Generated_Source\PSoC4/I2CS_I2C.c ****         CyIntDisable    (I2CS_ISR_NUMBER);
  73              		.loc 1 191 0
  74 003c 0A20     		mov	r0, #10
  75 003e FFF7FEFF 		bl	CyIntDisable
 192:.\Generated_Source\PSoC4/I2CS_I2C.c ****         CyIntSetPriority(I2CS_ISR_NUMBER, I2CS_ISR_PRIORITY);
  76              		.loc 1 192 0
  77 0042 0A20     		mov	r0, #10
  78 0044 0321     		mov	r1, #3
  79 0046 FFF7FEFF 		bl	CyIntSetPriority
 193:.\Generated_Source\PSoC4/I2CS_I2C.c ****     #if(!I2CS_I2C_EXTERN_INTR_HANDLER)
 194:.\Generated_Source\PSoC4/I2CS_I2C.c ****         (void) CyIntSetVector(I2CS_ISR_NUMBER, &I2CS_I2C_ISR);
  80              		.loc 1 194 0
  81 004a 1F4B     		ldr	r3, .L2+44
  82 004c 0A20     		mov	r0, #10
  83 004e 191C     		mov	r1, r3
  84 0050 FFF7FEFF 		bl	CyIntSetVector
 195:.\Generated_Source\PSoC4/I2CS_I2C.c ****     #endif /* (I2CS_I2C_EXTERN_INTR_HANDLER) */
 196:.\Generated_Source\PSoC4/I2CS_I2C.c **** 
 197:.\Generated_Source\PSoC4/I2CS_I2C.c ****         /* Configure interrupt sources */
 198:.\Generated_Source\PSoC4/I2CS_I2C.c ****     #if(!I2CS_CY_SCBIP_V1_I2C_ONLY)
 199:.\Generated_Source\PSoC4/I2CS_I2C.c ****         I2CS_INTR_SPI_EC_MASK_REG = I2CS_I2C_DEFAULT_INTR_SPI_EC_MASK;
  85              		.loc 1 199 0
  86 0054 1D4B     		ldr	r3, .L2+48
ARM GAS  F:\UTILIS~1\demasson\AppData\Local\Temp\ccJT340d.s 			page 6


  87 0056 0022     		mov	r2, #0
  88 0058 1A60     		str	r2, [r3]
 200:.\Generated_Source\PSoC4/I2CS_I2C.c ****     #endif /* (!I2CS_CY_SCBIP_V1_I2C_ONLY) */
 201:.\Generated_Source\PSoC4/I2CS_I2C.c **** 
 202:.\Generated_Source\PSoC4/I2CS_I2C.c ****         I2CS_INTR_I2C_EC_MASK_REG = I2CS_I2C_DEFAULT_INTR_I2C_EC_MASK;
  89              		.loc 1 202 0
  90 005a 1D4B     		ldr	r3, .L2+52
  91 005c 0022     		mov	r2, #0
  92 005e 1A60     		str	r2, [r3]
 203:.\Generated_Source\PSoC4/I2CS_I2C.c ****         I2CS_INTR_SLAVE_MASK_REG  = I2CS_I2C_DEFAULT_INTR_SLAVE_MASK;
  93              		.loc 1 203 0
  94 0060 1C4B     		ldr	r3, .L2+56
  95 0062 1D4A     		ldr	r2, .L2+60
  96 0064 1A60     		str	r2, [r3]
 204:.\Generated_Source\PSoC4/I2CS_I2C.c ****         I2CS_INTR_MASTER_MASK_REG = I2CS_I2C_DEFAULT_INTR_MASTER_MASK;
  97              		.loc 1 204 0
  98 0066 1D4B     		ldr	r3, .L2+64
  99 0068 0022     		mov	r2, #0
 100 006a 1A60     		str	r2, [r3]
 205:.\Generated_Source\PSoC4/I2CS_I2C.c ****         I2CS_INTR_RX_MASK_REG     = I2CS_I2C_DEFAULT_INTR_RX_MASK;
 101              		.loc 1 205 0
 102 006c 1C4B     		ldr	r3, .L2+68
 103 006e 0022     		mov	r2, #0
 104 0070 1A60     		str	r2, [r3]
 206:.\Generated_Source\PSoC4/I2CS_I2C.c ****         I2CS_INTR_TX_MASK_REG     = I2CS_I2C_DEFAULT_INTR_TX_MASK;
 105              		.loc 1 206 0
 106 0072 1C4B     		ldr	r3, .L2+72
 107 0074 0022     		mov	r2, #0
 108 0076 1A60     		str	r2, [r3]
 207:.\Generated_Source\PSoC4/I2CS_I2C.c **** 
 208:.\Generated_Source\PSoC4/I2CS_I2C.c ****         /* Configure global variables */
 209:.\Generated_Source\PSoC4/I2CS_I2C.c ****         I2CS_state = I2CS_I2C_FSM_IDLE;
 109              		.loc 1 209 0
 110 0078 1B4B     		ldr	r3, .L2+76
 111 007a 1022     		mov	r2, #16
 112 007c 1A70     		strb	r2, [r3]
 210:.\Generated_Source\PSoC4/I2CS_I2C.c **** 
 211:.\Generated_Source\PSoC4/I2CS_I2C.c ****     #if(I2CS_I2C_SLAVE)
 212:.\Generated_Source\PSoC4/I2CS_I2C.c ****         /* Internal slave variable */
 213:.\Generated_Source\PSoC4/I2CS_I2C.c ****         I2CS_slStatus        = 0u;
 113              		.loc 1 213 0
 114 007e 1B4B     		ldr	r3, .L2+80
 115 0080 0022     		mov	r2, #0
 116 0082 1A70     		strb	r2, [r3]
 214:.\Generated_Source\PSoC4/I2CS_I2C.c ****         I2CS_slRdBufIndex    = 0u;
 117              		.loc 1 214 0
 118 0084 1A4B     		ldr	r3, .L2+84
 119 0086 0022     		mov	r2, #0
 120 0088 1A60     		str	r2, [r3]
 215:.\Generated_Source\PSoC4/I2CS_I2C.c ****         I2CS_slWrBufIndex    = 0u;
 121              		.loc 1 215 0
 122 008a 1A4B     		ldr	r3, .L2+88
 123 008c 0022     		mov	r2, #0
 124 008e 1A60     		str	r2, [r3]
 216:.\Generated_Source\PSoC4/I2CS_I2C.c ****         I2CS_slOverFlowCount = 0u;
 125              		.loc 1 216 0
 126 0090 194B     		ldr	r3, .L2+92
ARM GAS  F:\UTILIS~1\demasson\AppData\Local\Temp\ccJT340d.s 			page 7


 127 0092 0022     		mov	r2, #0
 128 0094 1A70     		strb	r2, [r3]
 217:.\Generated_Source\PSoC4/I2CS_I2C.c ****     #endif /* (I2CS_I2C_SLAVE) */
 218:.\Generated_Source\PSoC4/I2CS_I2C.c **** 
 219:.\Generated_Source\PSoC4/I2CS_I2C.c ****     #if(I2CS_I2C_MASTER)
 220:.\Generated_Source\PSoC4/I2CS_I2C.c ****     /* Internal master variable */
 221:.\Generated_Source\PSoC4/I2CS_I2C.c ****         I2CS_mstrStatus     = 0u;
 222:.\Generated_Source\PSoC4/I2CS_I2C.c ****         I2CS_mstrRdBufIndex = 0u;
 223:.\Generated_Source\PSoC4/I2CS_I2C.c ****         I2CS_mstrWrBufIndex = 0u;
 224:.\Generated_Source\PSoC4/I2CS_I2C.c ****     #endif /* (I2CS_I2C_MASTER) */
 225:.\Generated_Source\PSoC4/I2CS_I2C.c ****     }
 129              		.loc 1 225 0
 130 0096 BD46     		mov	sp, r7
 131              		@ sp needed for prologue
 132 0098 80BD     		pop	{r7, pc}
 133              	.L3:
 134 009a C046     		.align	2
 135              	.L2:
 136 009c 00000640 		.word	1074135040
 137 00a0 60000640 		.word	1074135136
 138 00a4 76080040 		.word	1073743990
 139 00a8 70000640 		.word	1074135152
 140 00ac 00030640 		.word	1074135808
 141 00b0 07010080 		.word	-2147483385
 142 00b4 04030640 		.word	1074135812
 143 00b8 10030640 		.word	1074135824
 144 00bc 2400FE00 		.word	16646180
 145 00c0 00020640 		.word	1074135552
 146 00c4 04020640 		.word	1074135556
 147 00c8 00000000 		.word	I2CS_I2C_ISR
 148 00cc C80E0640 		.word	1074138824
 149 00d0 880E0640 		.word	1074138760
 150 00d4 480F0640 		.word	1074138952
 151 00d8 4B010000 		.word	331
 152 00dc 080F0640 		.word	1074138888
 153 00e0 C80F0640 		.word	1074139080
 154 00e4 880F0640 		.word	1074139016
 155 00e8 00000000 		.word	I2CS_state
 156 00ec 00000000 		.word	I2CS_slStatus
 157 00f0 00000000 		.word	I2CS_slRdBufIndex
 158 00f4 00000000 		.word	I2CS_slWrBufIndex
 159 00f8 00000000 		.word	I2CS_slOverFlowCount
 160              		.cfi_endproc
 161              	.LFE0:
 162              		.size	I2CS_I2CInit, .-I2CS_I2CInit
 163              		.section	.text.I2CS_I2CStop,"ax",%progbits
 164              		.align	2
 165              		.global	I2CS_I2CStop
 166              		.code	16
 167              		.thumb_func
 168              		.type	I2CS_I2CStop, %function
 169              	I2CS_I2CStop:
 170              	.LFB1:
 226:.\Generated_Source\PSoC4/I2CS_I2C.c **** #endif /* (I2CS_SCB_MODE_UNCONFIG_CONST_CFG) */
 227:.\Generated_Source\PSoC4/I2CS_I2C.c **** 
 228:.\Generated_Source\PSoC4/I2CS_I2C.c **** 
 229:.\Generated_Source\PSoC4/I2CS_I2C.c **** /*******************************************************************************
ARM GAS  F:\UTILIS~1\demasson\AppData\Local\Temp\ccJT340d.s 			page 8


 230:.\Generated_Source\PSoC4/I2CS_I2C.c **** * Function Name: I2CS_I2CStop
 231:.\Generated_Source\PSoC4/I2CS_I2C.c **** ********************************************************************************
 232:.\Generated_Source\PSoC4/I2CS_I2C.c **** *
 233:.\Generated_Source\PSoC4/I2CS_I2C.c **** * Summary:
 234:.\Generated_Source\PSoC4/I2CS_I2C.c **** *  Resets the I2C FSM into the default state and disables TX interrupt sources.
 235:.\Generated_Source\PSoC4/I2CS_I2C.c **** *
 236:.\Generated_Source\PSoC4/I2CS_I2C.c **** * Parameters:
 237:.\Generated_Source\PSoC4/I2CS_I2C.c **** *  None
 238:.\Generated_Source\PSoC4/I2CS_I2C.c **** *
 239:.\Generated_Source\PSoC4/I2CS_I2C.c **** * Return:
 240:.\Generated_Source\PSoC4/I2CS_I2C.c **** *  None
 241:.\Generated_Source\PSoC4/I2CS_I2C.c **** *
 242:.\Generated_Source\PSoC4/I2CS_I2C.c **** * Global variables:
 243:.\Generated_Source\PSoC4/I2CS_I2C.c **** *
 244:.\Generated_Source\PSoC4/I2CS_I2C.c **** *
 245:.\Generated_Source\PSoC4/I2CS_I2C.c **** *******************************************************************************/
 246:.\Generated_Source\PSoC4/I2CS_I2C.c **** void I2CS_I2CStop(void)
 247:.\Generated_Source\PSoC4/I2CS_I2C.c **** {
 171              		.loc 1 247 0
 172              		.cfi_startproc
 173 0000 80B5     		push	{r7, lr}
 174              	.LCFI2:
 175              		.cfi_def_cfa_offset 8
 176              		.cfi_offset 7, -8
 177              		.cfi_offset 14, -4
 178 0002 00AF     		add	r7, sp, #0
 179              	.LCFI3:
 180              		.cfi_def_cfa_register 7
 248:.\Generated_Source\PSoC4/I2CS_I2C.c ****     /* Disable TX interrupt sources in order not to cause a false trigger.
 249:.\Generated_Source\PSoC4/I2CS_I2C.c ****     * The incoming transaction will enable an appropriate TX interrupt.
 250:.\Generated_Source\PSoC4/I2CS_I2C.c ****     */
 251:.\Generated_Source\PSoC4/I2CS_I2C.c ****     I2CS_SetTxInterruptMode(I2CS_NO_INTR_SOURCES);
 181              		.loc 1 251 0
 182 0004 054B     		ldr	r3, .L5
 183 0006 0022     		mov	r2, #0
 184 0008 1A60     		str	r2, [r3]
 252:.\Generated_Source\PSoC4/I2CS_I2C.c **** 
 253:.\Generated_Source\PSoC4/I2CS_I2C.c **** #if(I2CS_CY_SCBIP_V0)
 254:.\Generated_Source\PSoC4/I2CS_I2C.c ****     /* Clear pending interrupt as TX FIFO becomes empty and block does not gate interrupt trigger w
 255:.\Generated_Source\PSoC4/I2CS_I2C.c ****     I2CS_ClearPendingInt();
 185              		.loc 1 255 0
 186 000a 0A20     		mov	r0, #10
 187 000c FFF7FEFF 		bl	CyIntClearPending
 256:.\Generated_Source\PSoC4/I2CS_I2C.c **** #endif /* (I2CS_CY_SCBIP_V0) */
 257:.\Generated_Source\PSoC4/I2CS_I2C.c **** 
 258:.\Generated_Source\PSoC4/I2CS_I2C.c ****     I2CS_state = I2CS_I2C_FSM_IDLE;
 188              		.loc 1 258 0
 189 0010 034B     		ldr	r3, .L5+4
 190 0012 1022     		mov	r2, #16
 191 0014 1A70     		strb	r2, [r3]
 259:.\Generated_Source\PSoC4/I2CS_I2C.c **** }
 192              		.loc 1 259 0
 193 0016 BD46     		mov	sp, r7
 194              		@ sp needed for prologue
 195 0018 80BD     		pop	{r7, pc}
 196              	.L6:
 197 001a C046     		.align	2
ARM GAS  F:\UTILIS~1\demasson\AppData\Local\Temp\ccJT340d.s 			page 9


 198              	.L5:
 199 001c 880F0640 		.word	1074139016
 200 0020 00000000 		.word	I2CS_state
 201              		.cfi_endproc
 202              	.LFE1:
 203              		.size	I2CS_I2CStop, .-I2CS_I2CStop
 204              		.section	.text.I2CS_I2CSaveConfig,"ax",%progbits
 205              		.align	2
 206              		.global	I2CS_I2CSaveConfig
 207              		.code	16
 208              		.thumb_func
 209              		.type	I2CS_I2CSaveConfig, %function
 210              	I2CS_I2CSaveConfig:
 211              	.LFB2:
 260:.\Generated_Source\PSoC4/I2CS_I2C.c **** 
 261:.\Generated_Source\PSoC4/I2CS_I2C.c **** 
 262:.\Generated_Source\PSoC4/I2CS_I2C.c **** #if(I2CS_I2C_WAKE_ENABLE_CONST)
 263:.\Generated_Source\PSoC4/I2CS_I2C.c ****     /*******************************************************************************
 264:.\Generated_Source\PSoC4/I2CS_I2C.c ****     * Function Name: I2CS_I2CSaveConfig
 265:.\Generated_Source\PSoC4/I2CS_I2C.c ****     ********************************************************************************
 266:.\Generated_Source\PSoC4/I2CS_I2C.c ****     *
 267:.\Generated_Source\PSoC4/I2CS_I2C.c ****     * Summary:
 268:.\Generated_Source\PSoC4/I2CS_I2C.c ****     *  Enables I2CS_INTR_I2C_EC_WAKE_UP interrupt source. This interrupt
 269:.\Generated_Source\PSoC4/I2CS_I2C.c ****     *  triggers on address match and wakes up device.
 270:.\Generated_Source\PSoC4/I2CS_I2C.c ****     *
 271:.\Generated_Source\PSoC4/I2CS_I2C.c ****     * Parameters:
 272:.\Generated_Source\PSoC4/I2CS_I2C.c ****     *  None
 273:.\Generated_Source\PSoC4/I2CS_I2C.c ****     *
 274:.\Generated_Source\PSoC4/I2CS_I2C.c ****     * Return:
 275:.\Generated_Source\PSoC4/I2CS_I2C.c ****     *  None
 276:.\Generated_Source\PSoC4/I2CS_I2C.c ****     *
 277:.\Generated_Source\PSoC4/I2CS_I2C.c ****     *******************************************************************************/
 278:.\Generated_Source\PSoC4/I2CS_I2C.c ****     void I2CS_I2CSaveConfig(void)
 279:.\Generated_Source\PSoC4/I2CS_I2C.c ****     {
 212              		.loc 1 279 0
 213              		.cfi_startproc
 214 0000 80B5     		push	{r7, lr}
 215              	.LCFI4:
 216              		.cfi_def_cfa_offset 8
 217              		.cfi_offset 7, -8
 218              		.cfi_offset 14, -4
 219 0002 00AF     		add	r7, sp, #0
 220              	.LCFI5:
 221              		.cfi_def_cfa_register 7
 280:.\Generated_Source\PSoC4/I2CS_I2C.c ****         I2CS_SetI2CExtClkInterruptMode(I2CS_INTR_I2C_EC_WAKE_UP);
 222              		.loc 1 280 0
 223 0004 024B     		ldr	r3, .L8
 224 0006 0122     		mov	r2, #1
 225 0008 1A60     		str	r2, [r3]
 281:.\Generated_Source\PSoC4/I2CS_I2C.c ****     }
 226              		.loc 1 281 0
 227 000a BD46     		mov	sp, r7
 228              		@ sp needed for prologue
 229 000c 80BD     		pop	{r7, pc}
 230              	.L9:
 231 000e C046     		.align	2
 232              	.L8:
ARM GAS  F:\UTILIS~1\demasson\AppData\Local\Temp\ccJT340d.s 			page 10


 233 0010 880E0640 		.word	1074138760
 234              		.cfi_endproc
 235              	.LFE2:
 236              		.size	I2CS_I2CSaveConfig, .-I2CS_I2CSaveConfig
 237              		.section	.text.I2CS_I2CRestoreConfig,"ax",%progbits
 238              		.align	2
 239              		.global	I2CS_I2CRestoreConfig
 240              		.code	16
 241              		.thumb_func
 242              		.type	I2CS_I2CRestoreConfig, %function
 243              	I2CS_I2CRestoreConfig:
 244              	.LFB3:
 282:.\Generated_Source\PSoC4/I2CS_I2C.c **** 
 283:.\Generated_Source\PSoC4/I2CS_I2C.c **** 
 284:.\Generated_Source\PSoC4/I2CS_I2C.c ****     /*******************************************************************************
 285:.\Generated_Source\PSoC4/I2CS_I2C.c ****     * Function Name: I2CS_I2CRestoreConfig
 286:.\Generated_Source\PSoC4/I2CS_I2C.c ****     ********************************************************************************
 287:.\Generated_Source\PSoC4/I2CS_I2C.c ****     *
 288:.\Generated_Source\PSoC4/I2CS_I2C.c ****     * Summary:
 289:.\Generated_Source\PSoC4/I2CS_I2C.c ****     *  Added for compatibility.
 290:.\Generated_Source\PSoC4/I2CS_I2C.c ****     *
 291:.\Generated_Source\PSoC4/I2CS_I2C.c ****     * Parameters:
 292:.\Generated_Source\PSoC4/I2CS_I2C.c ****     *  None
 293:.\Generated_Source\PSoC4/I2CS_I2C.c ****     *
 294:.\Generated_Source\PSoC4/I2CS_I2C.c ****     * Return:
 295:.\Generated_Source\PSoC4/I2CS_I2C.c ****     *  None
 296:.\Generated_Source\PSoC4/I2CS_I2C.c ****     *
 297:.\Generated_Source\PSoC4/I2CS_I2C.c ****     *******************************************************************************/
 298:.\Generated_Source\PSoC4/I2CS_I2C.c ****     void I2CS_I2CRestoreConfig(void)
 299:.\Generated_Source\PSoC4/I2CS_I2C.c ****     {
 245              		.loc 1 299 0
 246              		.cfi_startproc
 247 0000 80B5     		push	{r7, lr}
 248              	.LCFI6:
 249              		.cfi_def_cfa_offset 8
 250              		.cfi_offset 7, -8
 251              		.cfi_offset 14, -4
 252 0002 00AF     		add	r7, sp, #0
 253              	.LCFI7:
 254              		.cfi_def_cfa_register 7
 300:.\Generated_Source\PSoC4/I2CS_I2C.c ****         /* I2CS_INTR_I2C_EC_WAKE_UP is masked-off in the interrupt */
 301:.\Generated_Source\PSoC4/I2CS_I2C.c ****     }
 255              		.loc 1 301 0
 256 0004 BD46     		mov	sp, r7
 257              		@ sp needed for prologue
 258 0006 80BD     		pop	{r7, pc}
 259              		.cfi_endproc
 260              	.LFE3:
 261              		.size	I2CS_I2CRestoreConfig, .-I2CS_I2CRestoreConfig
 262              		.text
 263              	.Letext0:
 264              		.file 2 "./Generated_Source/PSoC4/cytypes.h"
 265              		.file 3 ".\\Generated_Source\\PSoC4\\I2CS_I2C_PVT.h"